ARM GAS  C:\Users\aryan\AppData\Local\Temp\ccEOeQjh.s 			page 1


   1              		.syntax unified
   2              		.cpu cortex-m3
   3              		.fpu softvfp
   4              		.eabi_attribute 20, 1
   5              		.eabi_attribute 21, 1
   6              		.eabi_attribute 23, 3
   7              		.eabi_attribute 24, 1
   8              		.eabi_attribute 25, 1
   9              		.eabi_attribute 26, 1
  10              		.eabi_attribute 30, 1
  11              		.eabi_attribute 34, 1
  12              		.eabi_attribute 18, 4
  13              		.thumb
  14              		.syntax unified
  15              		.file	"CapSense_CSD_CSHL.c"
  16              		.text
  17              	.Ltext0:
  18              		.cfi_sections	.debug_frame
  19              		.section	.text.CapSense_CSD_BaseInit,"ax",%progbits
  20              		.align	2
  21              		.global	CapSense_CSD_BaseInit
  22              		.thumb
  23              		.thumb_func
  24              		.type	CapSense_CSD_BaseInit, %function
  25              	CapSense_CSD_BaseInit:
  26              	.LFB0:
  27              		.file 1 "Generated_Source\\PSoC5\\CapSense_CSD_CSHL.c"
   1:Generated_Source\PSoC5/CapSense_CSD_CSHL.c **** /*******************************************************************************
   2:Generated_Source\PSoC5/CapSense_CSD_CSHL.c **** * File Name: CapSense_CSD_CSHL.c
   3:Generated_Source\PSoC5/CapSense_CSD_CSHL.c **** * Version 3.50
   4:Generated_Source\PSoC5/CapSense_CSD_CSHL.c **** *
   5:Generated_Source\PSoC5/CapSense_CSD_CSHL.c **** * Description:
   6:Generated_Source\PSoC5/CapSense_CSD_CSHL.c **** *  This file provides the source code to the High Level APIs for the CapSesne
   7:Generated_Source\PSoC5/CapSense_CSD_CSHL.c **** *  CSD component.
   8:Generated_Source\PSoC5/CapSense_CSD_CSHL.c **** *
   9:Generated_Source\PSoC5/CapSense_CSD_CSHL.c **** * Note:
  10:Generated_Source\PSoC5/CapSense_CSD_CSHL.c **** *
  11:Generated_Source\PSoC5/CapSense_CSD_CSHL.c **** ********************************************************************************
  12:Generated_Source\PSoC5/CapSense_CSD_CSHL.c **** * Copyright 2008-2013, Cypress Semiconductor Corporation.  All rights reserved.
  13:Generated_Source\PSoC5/CapSense_CSD_CSHL.c **** * You may use this file only in accordance with the license, terms, conditions,
  14:Generated_Source\PSoC5/CapSense_CSD_CSHL.c **** * disclaimers, and limitations in the end user license agreement accompanying
  15:Generated_Source\PSoC5/CapSense_CSD_CSHL.c **** * the software package with which this file was provided.
  16:Generated_Source\PSoC5/CapSense_CSD_CSHL.c **** *******************************************************************************/
  17:Generated_Source\PSoC5/CapSense_CSD_CSHL.c **** 
  18:Generated_Source\PSoC5/CapSense_CSD_CSHL.c **** #include "CapSense_CSD_CSHL.h"
  19:Generated_Source\PSoC5/CapSense_CSD_CSHL.c **** 
  20:Generated_Source\PSoC5/CapSense_CSD_CSHL.c **** /* Storage of filters data */
  21:Generated_Source\PSoC5/CapSense_CSD_CSHL.c **** #if ( (CapSense_CSD_RAW_FILTER_MASK & CapSense_CSD_MEDIAN_FILTER) | \
  22:Generated_Source\PSoC5/CapSense_CSD_CSHL.c ****       (CapSense_CSD_RAW_FILTER_MASK & CapSense_CSD_AVERAGING_FILTER) )
  23:Generated_Source\PSoC5/CapSense_CSD_CSHL.c **** 
  24:Generated_Source\PSoC5/CapSense_CSD_CSHL.c ****     uint16 CapSense_CSD_rawFilterData1[CapSense_CSD_TOTAL_SENSOR_COUNT];
  25:Generated_Source\PSoC5/CapSense_CSD_CSHL.c ****     uint16 CapSense_CSD_rawFilterData2[CapSense_CSD_TOTAL_SENSOR_COUNT];
  26:Generated_Source\PSoC5/CapSense_CSD_CSHL.c **** 
  27:Generated_Source\PSoC5/CapSense_CSD_CSHL.c **** #elif ( (CapSense_CSD_RAW_FILTER_MASK & CapSense_CSD_IIR2_FILTER)   | \
  28:Generated_Source\PSoC5/CapSense_CSD_CSHL.c ****         (CapSense_CSD_RAW_FILTER_MASK & CapSense_CSD_IIR4_FILTER)   | \
  29:Generated_Source\PSoC5/CapSense_CSD_CSHL.c ****         (CapSense_CSD_RAW_FILTER_MASK & CapSense_CSD_JITTER_FILTER) | \
  30:Generated_Source\PSoC5/CapSense_CSD_CSHL.c ****         (CapSense_CSD_RAW_FILTER_MASK & CapSense_CSD_IIR8_FILTER)   | \
ARM GAS  C:\Users\aryan\AppData\Local\Temp\ccEOeQjh.s 			page 2


  31:Generated_Source\PSoC5/CapSense_CSD_CSHL.c ****         (CapSense_CSD_RAW_FILTER_MASK & CapSense_CSD_IIR16_FILTER) )
  32:Generated_Source\PSoC5/CapSense_CSD_CSHL.c ****         
  33:Generated_Source\PSoC5/CapSense_CSD_CSHL.c ****     uint16 CapSense_CSD_rawFilterData1[CapSense_CSD_TOTAL_SENSOR_COUNT];
  34:Generated_Source\PSoC5/CapSense_CSD_CSHL.c **** 
  35:Generated_Source\PSoC5/CapSense_CSD_CSHL.c **** #else
  36:Generated_Source\PSoC5/CapSense_CSD_CSHL.c ****     /* No Raw filters */
  37:Generated_Source\PSoC5/CapSense_CSD_CSHL.c **** #endif  /* ( (CapSense_CSD_RAW_FILTER_MASK & CapSense_CSD_MEDIAN_FILTER) || \
  38:Generated_Source\PSoC5/CapSense_CSD_CSHL.c ****         *    (CapSense_CSD_RAW_FILTER_MASK & CapSense_CSD_AVERAGING_FILTER) )
  39:Generated_Source\PSoC5/CapSense_CSD_CSHL.c ****         */
  40:Generated_Source\PSoC5/CapSense_CSD_CSHL.c **** 
  41:Generated_Source\PSoC5/CapSense_CSD_CSHL.c **** uint16 CapSense_CSD_sensorBaseline[CapSense_CSD_TOTAL_SENSOR_COUNT];
  42:Generated_Source\PSoC5/CapSense_CSD_CSHL.c **** uint8 CapSense_CSD_sensorBaselineLow[CapSense_CSD_TOTAL_SENSOR_COUNT];
  43:Generated_Source\PSoC5/CapSense_CSD_CSHL.c **** uint16 CapSense_CSD_sensorSignal[CapSense_CSD_TOTAL_SENSOR_COUNT];
  44:Generated_Source\PSoC5/CapSense_CSD_CSHL.c **** uint8 CapSense_CSD_sensorOnMask[(((CapSense_CSD_TOTAL_SENSOR_COUNT - 1u) / 8u) + 1u)];
  45:Generated_Source\PSoC5/CapSense_CSD_CSHL.c **** 
  46:Generated_Source\PSoC5/CapSense_CSD_CSHL.c **** uint8 CapSense_CSD_lowBaselineResetCnt[CapSense_CSD_TOTAL_SENSOR_COUNT];
  47:Generated_Source\PSoC5/CapSense_CSD_CSHL.c **** 
  48:Generated_Source\PSoC5/CapSense_CSD_CSHL.c **** const uint16 CYCODE CapSense_CSD_fingerThreshold[] = {
  49:Generated_Source\PSoC5/CapSense_CSD_CSHL.c ****     84u, 124u, 66u, 
  50:Generated_Source\PSoC5/CapSense_CSD_CSHL.c **** };
  51:Generated_Source\PSoC5/CapSense_CSD_CSHL.c **** 
  52:Generated_Source\PSoC5/CapSense_CSD_CSHL.c **** const uint16 CYCODE CapSense_CSD_noiseThreshold[] = {
  53:Generated_Source\PSoC5/CapSense_CSD_CSHL.c ****     42u, 45u, 33u, 
  54:Generated_Source\PSoC5/CapSense_CSD_CSHL.c **** };
  55:Generated_Source\PSoC5/CapSense_CSD_CSHL.c **** 
  56:Generated_Source\PSoC5/CapSense_CSD_CSHL.c **** const uint16 CYCODE CapSense_CSD_hysteresis[] = {
  57:Generated_Source\PSoC5/CapSense_CSD_CSHL.c ****     0u, 18u, 9u, 
  58:Generated_Source\PSoC5/CapSense_CSD_CSHL.c **** };
  59:Generated_Source\PSoC5/CapSense_CSD_CSHL.c **** 
  60:Generated_Source\PSoC5/CapSense_CSD_CSHL.c **** const uint8 CYCODE CapSense_CSD_debounce[] = {
  61:Generated_Source\PSoC5/CapSense_CSD_CSHL.c ****     1u, 5u, 5u, 
  62:Generated_Source\PSoC5/CapSense_CSD_CSHL.c **** };
  63:Generated_Source\PSoC5/CapSense_CSD_CSHL.c **** 
  64:Generated_Source\PSoC5/CapSense_CSD_CSHL.c **** uint8 CapSense_CSD_debounceCounter[] = {
  65:Generated_Source\PSoC5/CapSense_CSD_CSHL.c ****     0u, 0u, 0u, 
  66:Generated_Source\PSoC5/CapSense_CSD_CSHL.c **** };
  67:Generated_Source\PSoC5/CapSense_CSD_CSHL.c **** 
  68:Generated_Source\PSoC5/CapSense_CSD_CSHL.c **** const uint8 CYCODE CapSense_CSD_rawDataIndex[] = {
  69:Generated_Source\PSoC5/CapSense_CSD_CSHL.c ****     2u, /* LinearSlider0__LS */
  70:Generated_Source\PSoC5/CapSense_CSD_CSHL.c ****     0u, /* Button0__BTN */
  71:Generated_Source\PSoC5/CapSense_CSD_CSHL.c ****     1u, /* Button1__BTN */
  72:Generated_Source\PSoC5/CapSense_CSD_CSHL.c **** 
  73:Generated_Source\PSoC5/CapSense_CSD_CSHL.c **** };
  74:Generated_Source\PSoC5/CapSense_CSD_CSHL.c **** 
  75:Generated_Source\PSoC5/CapSense_CSD_CSHL.c **** const uint8 CYCODE CapSense_CSD_numberOfSensors[] = {
  76:Generated_Source\PSoC5/CapSense_CSD_CSHL.c ****     5u, /* LinearSlider0__LS */
  77:Generated_Source\PSoC5/CapSense_CSD_CSHL.c ****     1u, /* Button0__BTN */
  78:Generated_Source\PSoC5/CapSense_CSD_CSHL.c ****     1u, /* Button1__BTN */
  79:Generated_Source\PSoC5/CapSense_CSD_CSHL.c **** 
  80:Generated_Source\PSoC5/CapSense_CSD_CSHL.c **** };
  81:Generated_Source\PSoC5/CapSense_CSD_CSHL.c **** 
  82:Generated_Source\PSoC5/CapSense_CSD_CSHL.c **** const uint16 CYCODE CapSense_CSD_centroidMult[] = {
  83:Generated_Source\PSoC5/CapSense_CSD_CSHL.c ****     6400u, 
  84:Generated_Source\PSoC5/CapSense_CSD_CSHL.c **** };
  85:Generated_Source\PSoC5/CapSense_CSD_CSHL.c **** 
  86:Generated_Source\PSoC5/CapSense_CSD_CSHL.c **** 
  87:Generated_Source\PSoC5/CapSense_CSD_CSHL.c **** 
ARM GAS  C:\Users\aryan\AppData\Local\Temp\ccEOeQjh.s 			page 3


  88:Generated_Source\PSoC5/CapSense_CSD_CSHL.c **** 
  89:Generated_Source\PSoC5/CapSense_CSD_CSHL.c **** /*******************************************************************************
  90:Generated_Source\PSoC5/CapSense_CSD_CSHL.c **** * Function Name: CapSense_CSD_BaseInit
  91:Generated_Source\PSoC5/CapSense_CSD_CSHL.c **** ********************************************************************************
  92:Generated_Source\PSoC5/CapSense_CSD_CSHL.c **** *
  93:Generated_Source\PSoC5/CapSense_CSD_CSHL.c **** * Summary:
  94:Generated_Source\PSoC5/CapSense_CSD_CSHL.c **** *  Loads the CapSense_CSD_sensorBaseline[sensor] array element with an 
  95:Generated_Source\PSoC5/CapSense_CSD_CSHL.c **** *  initial value which is equal to raw count value. 
  96:Generated_Source\PSoC5/CapSense_CSD_CSHL.c **** *  Resets to zero CapSense_CSD_sensorBaselineLow[sensor] and 
  97:Generated_Source\PSoC5/CapSense_CSD_CSHL.c **** *  CapSense_CSD_sensorSignal[sensor] array element.
  98:Generated_Source\PSoC5/CapSense_CSD_CSHL.c **** *  Loads CapSense_CSD_debounceCounter[sensor] array element with initial 
  99:Generated_Source\PSoC5/CapSense_CSD_CSHL.c **** *  value equal CapSense_CSD_debounce[].
 100:Generated_Source\PSoC5/CapSense_CSD_CSHL.c **** *  Loads the CapSense_CSD_rawFilterData2[sensor] and 
 101:Generated_Source\PSoC5/CapSense_CSD_CSHL.c **** *  CapSense_CSD_rawFilterData2[sensor] array element with an 
 102:Generated_Source\PSoC5/CapSense_CSD_CSHL.c **** *  initial value which is equal raw count value if raw data filter is enabled.
 103:Generated_Source\PSoC5/CapSense_CSD_CSHL.c **** *
 104:Generated_Source\PSoC5/CapSense_CSD_CSHL.c **** * Parameters:
 105:Generated_Source\PSoC5/CapSense_CSD_CSHL.c **** *  sensor:  Sensor number.
 106:Generated_Source\PSoC5/CapSense_CSD_CSHL.c **** *
 107:Generated_Source\PSoC5/CapSense_CSD_CSHL.c **** * Return:
 108:Generated_Source\PSoC5/CapSense_CSD_CSHL.c **** *  None
 109:Generated_Source\PSoC5/CapSense_CSD_CSHL.c **** *
 110:Generated_Source\PSoC5/CapSense_CSD_CSHL.c **** * Global Variables:
 111:Generated_Source\PSoC5/CapSense_CSD_CSHL.c **** *  CapSense_CSD_sensorBaseline[]    - used to store baseline value.
 112:Generated_Source\PSoC5/CapSense_CSD_CSHL.c **** *  CapSense_CSD_sensorBaselineLow[] - used to store fraction byte of 
 113:Generated_Source\PSoC5/CapSense_CSD_CSHL.c **** *  baseline value.
 114:Generated_Source\PSoC5/CapSense_CSD_CSHL.c **** *  CapSense_CSD_sensorSignal[]      - used to store diffence between 
 115:Generated_Source\PSoC5/CapSense_CSD_CSHL.c **** *  current value of raw data and previous value of baseline.
 116:Generated_Source\PSoC5/CapSense_CSD_CSHL.c **** *  CapSense_CSD_debounceCounter[]   - used to store current debounce 
 117:Generated_Source\PSoC5/CapSense_CSD_CSHL.c **** *  counter of sensor. Widget which has this parameter are buttons, matrix 
 118:Generated_Source\PSoC5/CapSense_CSD_CSHL.c **** *  buttons, proximity, guard. All other widgets haven't debounce parameter
 119:Generated_Source\PSoC5/CapSense_CSD_CSHL.c **** *  and use the last element of this array with value 0 (it means no debounce).
 120:Generated_Source\PSoC5/CapSense_CSD_CSHL.c **** *  CapSense_CSD_rawFilterData1[]    - used to store previous sample of 
 121:Generated_Source\PSoC5/CapSense_CSD_CSHL.c **** *  any enabled raw data filter.
 122:Generated_Source\PSoC5/CapSense_CSD_CSHL.c **** *  CapSense_CSD_rawFilterData2[]    - used to store before previous sample
 123:Generated_Source\PSoC5/CapSense_CSD_CSHL.c **** *  of enabled raw data filter. Only required for median or average filters.
 124:Generated_Source\PSoC5/CapSense_CSD_CSHL.c **** *
 125:Generated_Source\PSoC5/CapSense_CSD_CSHL.c **** * Reentrant:
 126:Generated_Source\PSoC5/CapSense_CSD_CSHL.c **** *  No
 127:Generated_Source\PSoC5/CapSense_CSD_CSHL.c **** *
 128:Generated_Source\PSoC5/CapSense_CSD_CSHL.c **** *******************************************************************************/
 129:Generated_Source\PSoC5/CapSense_CSD_CSHL.c **** void CapSense_CSD_BaseInit(uint8 sensor) 
 130:Generated_Source\PSoC5/CapSense_CSD_CSHL.c **** {
  28              		.loc 1 130 0
  29              		.cfi_startproc
  30              		@ args = 0, pretend = 0, frame = 0
  31              		@ frame_needed = 0, uses_anonymous_args = 0
  32              		@ link register save eliminated.
  33              	.LVL0:
 131:Generated_Source\PSoC5/CapSense_CSD_CSHL.c ****     #if ((CapSense_CSD_TOTAL_BUTTONS_COUNT) || (CapSense_CSD_TOTAL_MATRIX_BUTTONS_COUNT) || \
 132:Generated_Source\PSoC5/CapSense_CSD_CSHL.c ****          (CapSense_CSD_TOTAL_GENERICS_COUNT))
 133:Generated_Source\PSoC5/CapSense_CSD_CSHL.c ****         uint8 widget = CapSense_CSD_widgetNumber[sensor];
  34              		.loc 1 133 0
  35 0000 0A4B     		ldr	r3, .L3
  36 0002 1B5C     		ldrb	r3, [r3, r0]	@ zero_extendqisi2
  37              	.LVL1:
 134:Generated_Source\PSoC5/CapSense_CSD_CSHL.c ****     #endif /* ((CapSense_CSD_TOTAL_MATRIX_BUTTONS_COUNT) || (CapSense_CSD_TOTAL_MATRIX_BUTTONS_COUN
ARM GAS  C:\Users\aryan\AppData\Local\Temp\ccEOeQjh.s 			page 4


 135:Generated_Source\PSoC5/CapSense_CSD_CSHL.c ****     
 136:Generated_Source\PSoC5/CapSense_CSD_CSHL.c ****     #if (CapSense_CSD_TOTAL_MATRIX_BUTTONS_COUNT)
 137:Generated_Source\PSoC5/CapSense_CSD_CSHL.c ****         uint8 debounceIndex;
 138:Generated_Source\PSoC5/CapSense_CSD_CSHL.c ****     #endif  /* (CapSense_CSD_TOTAL_MATRIX_BUTTONS_COUNT) */
 139:Generated_Source\PSoC5/CapSense_CSD_CSHL.c ****     
 140:Generated_Source\PSoC5/CapSense_CSD_CSHL.c ****     #if (CapSense_CSD_TOTAL_GENERICS_COUNT)
 141:Generated_Source\PSoC5/CapSense_CSD_CSHL.c ****         /* Exclude generic widget */
 142:Generated_Source\PSoC5/CapSense_CSD_CSHL.c ****         if(widget < CapSense_CSD_END_OF_WIDGETS_INDEX)
 143:Generated_Source\PSoC5/CapSense_CSD_CSHL.c ****         {
 144:Generated_Source\PSoC5/CapSense_CSD_CSHL.c ****     #endif  /* CapSense_CSD_TOTAL_GENERICS_COUNT */
 145:Generated_Source\PSoC5/CapSense_CSD_CSHL.c ****     
 146:Generated_Source\PSoC5/CapSense_CSD_CSHL.c ****     /* Initialize Baseline */
 147:Generated_Source\PSoC5/CapSense_CSD_CSHL.c ****     CapSense_CSD_sensorBaseline[sensor] = CapSense_CSD_sensorRaw[sensor];
  38              		.loc 1 147 0
  39 0004 0A4A     		ldr	r2, .L3+4
  40 0006 32F81010 		ldrh	r1, [r2, r0, lsl #1]
  41 000a 0A4A     		ldr	r2, .L3+8
  42 000c 22F81010 		strh	r1, [r2, r0, lsl #1]	@ movhi
 148:Generated_Source\PSoC5/CapSense_CSD_CSHL.c ****     CapSense_CSD_sensorBaselineLow[sensor] = 0u;
  43              		.loc 1 148 0
  44 0010 0022     		movs	r2, #0
  45 0012 0949     		ldr	r1, .L3+12
  46 0014 0A54     		strb	r2, [r1, r0]
 149:Generated_Source\PSoC5/CapSense_CSD_CSHL.c ****     CapSense_CSD_sensorSignal[sensor] = 0u;
  47              		.loc 1 149 0
  48 0016 0949     		ldr	r1, .L3+16
  49 0018 21F81020 		strh	r2, [r1, r0, lsl #1]	@ movhi
 150:Generated_Source\PSoC5/CapSense_CSD_CSHL.c ****         
 151:Generated_Source\PSoC5/CapSense_CSD_CSHL.c ****     if(widget > CapSense_CSD_END_OF_TOUCH_PAD_INDEX)
  50              		.loc 1 151 0
  51 001c 23B1     		cbz	r3, .L1
 152:Generated_Source\PSoC5/CapSense_CSD_CSHL.c ****     {
 153:Generated_Source\PSoC5/CapSense_CSD_CSHL.c ****         CapSense_CSD_debounceCounter[widget - (CapSense_CSD_END_OF_TOUCH_PAD_INDEX + 1)] =  CapSens
  52              		.loc 1 153 0
  53 001e 5A1E     		subs	r2, r3, #1
  54 0020 0749     		ldr	r1, .L3+20
  55 0022 C95C     		ldrb	r1, [r1, r3]	@ zero_extendqisi2
  56 0024 074B     		ldr	r3, .L3+24
  57              	.LVL2:
  58 0026 9954     		strb	r1, [r3, r2]
  59              	.LVL3:
  60              	.L1:
  61 0028 7047     		bx	lr
  62              	.L4:
  63 002a 00BF     		.align	2
  64              	.L3:
  65 002c 00000000 		.word	CapSense_CSD_widgetNumber
  66 0030 00000000 		.word	CapSense_CSD_sensorRaw
  67 0034 00000000 		.word	CapSense_CSD_sensorBaseline
  68 0038 00000000 		.word	CapSense_CSD_sensorBaselineLow
  69 003c 00000000 		.word	CapSense_CSD_sensorSignal
  70 0040 00000000 		.word	.LANCHOR0
  71 0044 00000000 		.word	.LANCHOR1
  72              		.cfi_endproc
  73              	.LFE0:
  74              		.size	CapSense_CSD_BaseInit, .-CapSense_CSD_BaseInit
  75              		.section	.text.CapSense_CSD_InitializeSensorBaseline,"ax",%progbits
ARM GAS  C:\Users\aryan\AppData\Local\Temp\ccEOeQjh.s 			page 5


  76              		.align	2
  77              		.global	CapSense_CSD_InitializeSensorBaseline
  78              		.thumb
  79              		.thumb_func
  80              		.type	CapSense_CSD_InitializeSensorBaseline, %function
  81              	CapSense_CSD_InitializeSensorBaseline:
  82              	.LFB1:
 154:Generated_Source\PSoC5/CapSense_CSD_CSHL.c ****     }
 155:Generated_Source\PSoC5/CapSense_CSD_CSHL.c **** 
 156:Generated_Source\PSoC5/CapSense_CSD_CSHL.c ****     
 157:Generated_Source\PSoC5/CapSense_CSD_CSHL.c ****     #if ((CapSense_CSD_RAW_FILTER_MASK & CapSense_CSD_MEDIAN_FILTER) |\
 158:Generated_Source\PSoC5/CapSense_CSD_CSHL.c ****          (CapSense_CSD_RAW_FILTER_MASK & CapSense_CSD_AVERAGING_FILTER))
 159:Generated_Source\PSoC5/CapSense_CSD_CSHL.c **** 
 160:Generated_Source\PSoC5/CapSense_CSD_CSHL.c ****         CapSense_CSD_rawFilterData1[sensor] = CapSense_CSD_sensorRaw[sensor];
 161:Generated_Source\PSoC5/CapSense_CSD_CSHL.c ****         CapSense_CSD_rawFilterData2[sensor] = CapSense_CSD_sensorRaw[sensor];
 162:Generated_Source\PSoC5/CapSense_CSD_CSHL.c ****     
 163:Generated_Source\PSoC5/CapSense_CSD_CSHL.c ****     #elif ((CapSense_CSD_RAW_FILTER_MASK & CapSense_CSD_IIR2_FILTER) |\
 164:Generated_Source\PSoC5/CapSense_CSD_CSHL.c ****            (CapSense_CSD_RAW_FILTER_MASK & CapSense_CSD_IIR4_FILTER) |\
 165:Generated_Source\PSoC5/CapSense_CSD_CSHL.c ****            (CapSense_CSD_RAW_FILTER_MASK & CapSense_CSD_JITTER_FILTER) |\
 166:Generated_Source\PSoC5/CapSense_CSD_CSHL.c ****            (CapSense_CSD_RAW_FILTER_MASK & CapSense_CSD_IIR8_FILTER) |\
 167:Generated_Source\PSoC5/CapSense_CSD_CSHL.c ****            (CapSense_CSD_RAW_FILTER_MASK & CapSense_CSD_IIR16_FILTER))
 168:Generated_Source\PSoC5/CapSense_CSD_CSHL.c ****             
 169:Generated_Source\PSoC5/CapSense_CSD_CSHL.c ****         CapSense_CSD_rawFilterData1[sensor] = CapSense_CSD_sensorRaw[sensor];
 170:Generated_Source\PSoC5/CapSense_CSD_CSHL.c ****     
 171:Generated_Source\PSoC5/CapSense_CSD_CSHL.c ****     #else
 172:Generated_Source\PSoC5/CapSense_CSD_CSHL.c ****         /* No Raw filters */
 173:Generated_Source\PSoC5/CapSense_CSD_CSHL.c ****     #endif  /* ((CapSense_CSD_RAW_FILTER_MASK & CapSense_CSD_MEDIAN_FILTER) | \
 174:Generated_Source\PSoC5/CapSense_CSD_CSHL.c ****             *   (CapSense_CSD_RAW_FILTER_MASK & CapSense_CSD_AVERAGING_FILTER))
 175:Generated_Source\PSoC5/CapSense_CSD_CSHL.c ****             */
 176:Generated_Source\PSoC5/CapSense_CSD_CSHL.c ****     
 177:Generated_Source\PSoC5/CapSense_CSD_CSHL.c ****     #if (CapSense_CSD_TOTAL_GENERICS_COUNT)
 178:Generated_Source\PSoC5/CapSense_CSD_CSHL.c ****         /* Exclude generic widget */
 179:Generated_Source\PSoC5/CapSense_CSD_CSHL.c ****         }
 180:Generated_Source\PSoC5/CapSense_CSD_CSHL.c ****     #endif  /* CapSense_CSD_TOTAL_GENERICS_COUNT */
 181:Generated_Source\PSoC5/CapSense_CSD_CSHL.c **** }
 182:Generated_Source\PSoC5/CapSense_CSD_CSHL.c **** 
 183:Generated_Source\PSoC5/CapSense_CSD_CSHL.c **** 
 184:Generated_Source\PSoC5/CapSense_CSD_CSHL.c **** /*******************************************************************************
 185:Generated_Source\PSoC5/CapSense_CSD_CSHL.c **** * Function Name: CapSense_CSD_InitializeSensorBaseline
 186:Generated_Source\PSoC5/CapSense_CSD_CSHL.c **** ********************************************************************************
 187:Generated_Source\PSoC5/CapSense_CSD_CSHL.c **** *
 188:Generated_Source\PSoC5/CapSense_CSD_CSHL.c **** * Summary:
 189:Generated_Source\PSoC5/CapSense_CSD_CSHL.c **** *  Loads the CapSense_CSD_sensorBaseline[sensor] array element with an 
 190:Generated_Source\PSoC5/CapSense_CSD_CSHL.c **** *  initial value by scanning the selected sensor (one channel design) or pair 
 191:Generated_Source\PSoC5/CapSense_CSD_CSHL.c **** *  of sensors (two channels designs). The raw count value is copied into the 
 192:Generated_Source\PSoC5/CapSense_CSD_CSHL.c **** *  baseline array for each sensor. The raw data filters are initialized if 
 193:Generated_Source\PSoC5/CapSense_CSD_CSHL.c **** *  enabled.
 194:Generated_Source\PSoC5/CapSense_CSD_CSHL.c **** *
 195:Generated_Source\PSoC5/CapSense_CSD_CSHL.c **** * Parameters:
 196:Generated_Source\PSoC5/CapSense_CSD_CSHL.c **** *  sensor:  Sensor number.
 197:Generated_Source\PSoC5/CapSense_CSD_CSHL.c **** *
 198:Generated_Source\PSoC5/CapSense_CSD_CSHL.c **** * Return:
 199:Generated_Source\PSoC5/CapSense_CSD_CSHL.c **** *  None
 200:Generated_Source\PSoC5/CapSense_CSD_CSHL.c **** *
 201:Generated_Source\PSoC5/CapSense_CSD_CSHL.c **** * Reentrant:
 202:Generated_Source\PSoC5/CapSense_CSD_CSHL.c **** *  No
 203:Generated_Source\PSoC5/CapSense_CSD_CSHL.c **** *
ARM GAS  C:\Users\aryan\AppData\Local\Temp\ccEOeQjh.s 			page 6


 204:Generated_Source\PSoC5/CapSense_CSD_CSHL.c **** *******************************************************************************/
 205:Generated_Source\PSoC5/CapSense_CSD_CSHL.c **** void CapSense_CSD_InitializeSensorBaseline(uint8 sensor)
 206:Generated_Source\PSoC5/CapSense_CSD_CSHL.c ****                           
 207:Generated_Source\PSoC5/CapSense_CSD_CSHL.c **** {
  83              		.loc 1 207 0
  84              		.cfi_startproc
  85              		@ args = 0, pretend = 0, frame = 0
  86              		@ frame_needed = 0, uses_anonymous_args = 0
  87              	.LVL4:
  88 0000 10B5     		push	{r4, lr}
  89              		.cfi_def_cfa_offset 8
  90              		.cfi_offset 4, -8
  91              		.cfi_offset 14, -4
  92 0002 0446     		mov	r4, r0
 208:Generated_Source\PSoC5/CapSense_CSD_CSHL.c ****     /* Scan sensor */
 209:Generated_Source\PSoC5/CapSense_CSD_CSHL.c ****     CapSense_CSD_ScanSensor(sensor);
  93              		.loc 1 209 0
  94 0004 FFF7FEFF 		bl	CapSense_CSD_ScanSensor
  95              	.LVL5:
  96              	.L6:
 210:Generated_Source\PSoC5/CapSense_CSD_CSHL.c ****     while(CapSense_CSD_IsBusy() != 0u)
  97              		.loc 1 210 0 discriminator 1
  98 0008 FFF7FEFF 		bl	CapSense_CSD_IsBusy
  99              	.LVL6:
 100 000c 0028     		cmp	r0, #0
 101 000e FBD1     		bne	.L6
 211:Generated_Source\PSoC5/CapSense_CSD_CSHL.c ****     {
 212:Generated_Source\PSoC5/CapSense_CSD_CSHL.c ****         /* Wait while busy */
 213:Generated_Source\PSoC5/CapSense_CSD_CSHL.c ****     }
 214:Generated_Source\PSoC5/CapSense_CSD_CSHL.c ****     
 215:Generated_Source\PSoC5/CapSense_CSD_CSHL.c ****     #if (CapSense_CSD_DESIGN_TYPE == CapSense_CSD_ONE_CHANNEL_DESIGN)
 216:Generated_Source\PSoC5/CapSense_CSD_CSHL.c ****         /* Initialize Baseline, Signal and debounce counters */       
 217:Generated_Source\PSoC5/CapSense_CSD_CSHL.c ****         CapSense_CSD_BaseInit(sensor);
 102              		.loc 1 217 0
 103 0010 2046     		mov	r0, r4
 104 0012 FFF7FEFF 		bl	CapSense_CSD_BaseInit
 105              	.LVL7:
 106 0016 10BD     		pop	{r4, pc}
 107              		.cfi_endproc
 108              	.LFE1:
 109              		.size	CapSense_CSD_InitializeSensorBaseline, .-CapSense_CSD_InitializeSensorBaseline
 110              		.section	.text.CapSense_CSD_InitializeAllBaselines,"ax",%progbits
 111              		.align	2
 112              		.global	CapSense_CSD_InitializeAllBaselines
 113              		.thumb
 114              		.thumb_func
 115              		.type	CapSense_CSD_InitializeAllBaselines, %function
 116              	CapSense_CSD_InitializeAllBaselines:
 117              	.LFB2:
 218:Generated_Source\PSoC5/CapSense_CSD_CSHL.c ****         
 219:Generated_Source\PSoC5/CapSense_CSD_CSHL.c ****     #else
 220:Generated_Source\PSoC5/CapSense_CSD_CSHL.c ****     
 221:Generated_Source\PSoC5/CapSense_CSD_CSHL.c ****         if(sensor < CapSense_CSD_TOTAL_SENSOR_COUNT__CH0)
 222:Generated_Source\PSoC5/CapSense_CSD_CSHL.c ****         {
 223:Generated_Source\PSoC5/CapSense_CSD_CSHL.c ****             /* Initialize Baseline, Signal and debounce counters */ 
 224:Generated_Source\PSoC5/CapSense_CSD_CSHL.c ****             CapSense_CSD_BaseInit(sensor);
 225:Generated_Source\PSoC5/CapSense_CSD_CSHL.c ****         }
ARM GAS  C:\Users\aryan\AppData\Local\Temp\ccEOeQjh.s 			page 7


 226:Generated_Source\PSoC5/CapSense_CSD_CSHL.c ****         
 227:Generated_Source\PSoC5/CapSense_CSD_CSHL.c ****         if(sensor < CapSense_CSD_TOTAL_SENSOR_COUNT__CH1)
 228:Generated_Source\PSoC5/CapSense_CSD_CSHL.c ****         {
 229:Generated_Source\PSoC5/CapSense_CSD_CSHL.c ****             /* Initialize Baseline, Signal and debounce counters */
 230:Generated_Source\PSoC5/CapSense_CSD_CSHL.c ****             CapSense_CSD_BaseInit(sensor + CapSense_CSD_TOTAL_SENSOR_COUNT__CH0);
 231:Generated_Source\PSoC5/CapSense_CSD_CSHL.c ****         }
 232:Generated_Source\PSoC5/CapSense_CSD_CSHL.c ****     
 233:Generated_Source\PSoC5/CapSense_CSD_CSHL.c ****     #endif  /* (CapSense_CSD_DESIGN_TYPE == CapSense_CSD_ONE_CHANNEL_DESIGN) */
 234:Generated_Source\PSoC5/CapSense_CSD_CSHL.c **** }
 235:Generated_Source\PSoC5/CapSense_CSD_CSHL.c **** 
 236:Generated_Source\PSoC5/CapSense_CSD_CSHL.c **** 
 237:Generated_Source\PSoC5/CapSense_CSD_CSHL.c **** /*******************************************************************************
 238:Generated_Source\PSoC5/CapSense_CSD_CSHL.c **** * Function Name: CapSense_CSD_InitializeAllBaselines
 239:Generated_Source\PSoC5/CapSense_CSD_CSHL.c **** ********************************************************************************
 240:Generated_Source\PSoC5/CapSense_CSD_CSHL.c **** *
 241:Generated_Source\PSoC5/CapSense_CSD_CSHL.c **** * Summary:
 242:Generated_Source\PSoC5/CapSense_CSD_CSHL.c **** *  Uses the CapSense_CSD_InitializeSensorBaseline function to loads the 
 243:Generated_Source\PSoC5/CapSense_CSD_CSHL.c **** *  CapSense_CSD_sensorBaseline[] array with an initial values by scanning 
 244:Generated_Source\PSoC5/CapSense_CSD_CSHL.c **** *  all sensors. The raw count values are copied into the baseline array for 
 245:Generated_Source\PSoC5/CapSense_CSD_CSHL.c **** *  all sensors. The raw data filters are initialized if enabled.
 246:Generated_Source\PSoC5/CapSense_CSD_CSHL.c **** *
 247:Generated_Source\PSoC5/CapSense_CSD_CSHL.c **** * Parameters:
 248:Generated_Source\PSoC5/CapSense_CSD_CSHL.c **** *  None
 249:Generated_Source\PSoC5/CapSense_CSD_CSHL.c **** *
 250:Generated_Source\PSoC5/CapSense_CSD_CSHL.c **** * Return:
 251:Generated_Source\PSoC5/CapSense_CSD_CSHL.c **** *  None
 252:Generated_Source\PSoC5/CapSense_CSD_CSHL.c **** *
 253:Generated_Source\PSoC5/CapSense_CSD_CSHL.c **** * Reentrant:
 254:Generated_Source\PSoC5/CapSense_CSD_CSHL.c **** *  No
 255:Generated_Source\PSoC5/CapSense_CSD_CSHL.c **** *
 256:Generated_Source\PSoC5/CapSense_CSD_CSHL.c **** *******************************************************************************/
 257:Generated_Source\PSoC5/CapSense_CSD_CSHL.c **** void CapSense_CSD_InitializeAllBaselines(void)
 258:Generated_Source\PSoC5/CapSense_CSD_CSHL.c ****                           
 259:Generated_Source\PSoC5/CapSense_CSD_CSHL.c **** {
 118              		.loc 1 259 0
 119              		.cfi_startproc
 120              		@ args = 0, pretend = 0, frame = 0
 121              		@ frame_needed = 0, uses_anonymous_args = 0
 122 0000 10B5     		push	{r4, lr}
 123              		.cfi_def_cfa_offset 8
 124              		.cfi_offset 4, -8
 125              		.cfi_offset 14, -4
 126              	.LVL8:
 260:Generated_Source\PSoC5/CapSense_CSD_CSHL.c ****     uint8 i;
 261:Generated_Source\PSoC5/CapSense_CSD_CSHL.c ****     
 262:Generated_Source\PSoC5/CapSense_CSD_CSHL.c ****     /* The baseline initialize by sensor of sensor pair */
 263:Generated_Source\PSoC5/CapSense_CSD_CSHL.c ****     for(i = 0u; i < CapSense_CSD_TOTAL_SCANSLOT_COUNT; i++)
 127              		.loc 1 263 0
 128 0002 0024     		movs	r4, #0
 129 0004 04E0     		b	.L9
 130              	.LVL9:
 131              	.L10:
 264:Generated_Source\PSoC5/CapSense_CSD_CSHL.c ****     {
 265:Generated_Source\PSoC5/CapSense_CSD_CSHL.c ****         CapSense_CSD_InitializeSensorBaseline(i);
 132              		.loc 1 265 0 discriminator 3
 133 0006 2046     		mov	r0, r4
 134 0008 FFF7FEFF 		bl	CapSense_CSD_InitializeSensorBaseline
ARM GAS  C:\Users\aryan\AppData\Local\Temp\ccEOeQjh.s 			page 8


 135              	.LVL10:
 263:Generated_Source\PSoC5/CapSense_CSD_CSHL.c ****     {
 136              		.loc 1 263 0 discriminator 3
 137 000c 0134     		adds	r4, r4, #1
 138              	.LVL11:
 139 000e E4B2     		uxtb	r4, r4
 140              	.LVL12:
 141              	.L9:
 263:Generated_Source\PSoC5/CapSense_CSD_CSHL.c ****     {
 142              		.loc 1 263 0 is_stmt 0 discriminator 1
 143 0010 062C     		cmp	r4, #6
 144 0012 F8D9     		bls	.L10
 266:Generated_Source\PSoC5/CapSense_CSD_CSHL.c ****     }
 267:Generated_Source\PSoC5/CapSense_CSD_CSHL.c **** }
 145              		.loc 1 267 0 is_stmt 1
 146 0014 10BD     		pop	{r4, pc}
 147              		.cfi_endproc
 148              	.LFE2:
 149              		.size	CapSense_CSD_InitializeAllBaselines, .-CapSense_CSD_InitializeAllBaselines
 150 0016 00BF     		.section	.text.CapSense_CSD_InitializeEnabledBaselines,"ax",%progbits
 151              		.align	2
 152              		.global	CapSense_CSD_InitializeEnabledBaselines
 153              		.thumb
 154              		.thumb_func
 155              		.type	CapSense_CSD_InitializeEnabledBaselines, %function
 156              	CapSense_CSD_InitializeEnabledBaselines:
 157              	.LFB3:
 268:Generated_Source\PSoC5/CapSense_CSD_CSHL.c **** 
 269:Generated_Source\PSoC5/CapSense_CSD_CSHL.c **** 
 270:Generated_Source\PSoC5/CapSense_CSD_CSHL.c **** /*******************************************************************************
 271:Generated_Source\PSoC5/CapSense_CSD_CSHL.c **** * Function Name: CapSense_CSD_InitializeEnabledBaselines
 272:Generated_Source\PSoC5/CapSense_CSD_CSHL.c **** ********************************************************************************
 273:Generated_Source\PSoC5/CapSense_CSD_CSHL.c **** *
 274:Generated_Source\PSoC5/CapSense_CSD_CSHL.c **** * Summary:
 275:Generated_Source\PSoC5/CapSense_CSD_CSHL.c **** *  Scans all enabled widgets and the raw count values are copied into the 
 276:Generated_Source\PSoC5/CapSense_CSD_CSHL.c **** *  baseline array for all sensors enabled in scanning process. Baselines 
 277:Generated_Source\PSoC5/CapSense_CSD_CSHL.c **** *  initialize with zero values for sensors disabled from scanning process. 
 278:Generated_Source\PSoC5/CapSense_CSD_CSHL.c **** *  The raw data filters are initialized if enabled.
 279:Generated_Source\PSoC5/CapSense_CSD_CSHL.c **** *
 280:Generated_Source\PSoC5/CapSense_CSD_CSHL.c **** * Parameters:
 281:Generated_Source\PSoC5/CapSense_CSD_CSHL.c **** *  None
 282:Generated_Source\PSoC5/CapSense_CSD_CSHL.c **** *
 283:Generated_Source\PSoC5/CapSense_CSD_CSHL.c **** * Return:
 284:Generated_Source\PSoC5/CapSense_CSD_CSHL.c **** *  None
 285:Generated_Source\PSoC5/CapSense_CSD_CSHL.c **** *
 286:Generated_Source\PSoC5/CapSense_CSD_CSHL.c **** * Reentrant:
 287:Generated_Source\PSoC5/CapSense_CSD_CSHL.c **** *  No
 288:Generated_Source\PSoC5/CapSense_CSD_CSHL.c **** *
 289:Generated_Source\PSoC5/CapSense_CSD_CSHL.c **** *******************************************************************************/
 290:Generated_Source\PSoC5/CapSense_CSD_CSHL.c **** void CapSense_CSD_InitializeEnabledBaselines(void)
 291:Generated_Source\PSoC5/CapSense_CSD_CSHL.c ****                              
 292:Generated_Source\PSoC5/CapSense_CSD_CSHL.c **** {
 158              		.loc 1 292 0
 159              		.cfi_startproc
 160              		@ args = 0, pretend = 0, frame = 0
 161              		@ frame_needed = 0, uses_anonymous_args = 0
 162 0000 10B5     		push	{r4, lr}
ARM GAS  C:\Users\aryan\AppData\Local\Temp\ccEOeQjh.s 			page 9


 163              		.cfi_def_cfa_offset 8
 164              		.cfi_offset 4, -8
 165              		.cfi_offset 14, -4
 293:Generated_Source\PSoC5/CapSense_CSD_CSHL.c ****     uint8 i;
 294:Generated_Source\PSoC5/CapSense_CSD_CSHL.c ****     uint8 pos;
 295:Generated_Source\PSoC5/CapSense_CSD_CSHL.c ****     uint8 enMask;
 296:Generated_Source\PSoC5/CapSense_CSD_CSHL.c ****     
 297:Generated_Source\PSoC5/CapSense_CSD_CSHL.c ****     CapSense_CSD_ScanEnabledWidgets();
 166              		.loc 1 297 0
 167 0002 FFF7FEFF 		bl	CapSense_CSD_ScanEnabledWidgets
 168              	.LVL13:
 169              	.L13:
 298:Generated_Source\PSoC5/CapSense_CSD_CSHL.c ****     while(CapSense_CSD_IsBusy() != 0u)
 170              		.loc 1 298 0 discriminator 1
 171 0006 FFF7FEFF 		bl	CapSense_CSD_IsBusy
 172              	.LVL14:
 173 000a 0028     		cmp	r0, #0
 174 000c FBD1     		bne	.L13
 175 000e 0024     		movs	r4, #0
 176 0010 11E0     		b	.L14
 177              	.LVL15:
 178              	.L16:
 299:Generated_Source\PSoC5/CapSense_CSD_CSHL.c ****     {
 300:Generated_Source\PSoC5/CapSense_CSD_CSHL.c ****         /* Wait while busy */
 301:Generated_Source\PSoC5/CapSense_CSD_CSHL.c ****     }
 302:Generated_Source\PSoC5/CapSense_CSD_CSHL.c ****     
 303:Generated_Source\PSoC5/CapSense_CSD_CSHL.c ****     for(i = 0u; i < CapSense_CSD_TOTAL_SENSOR_COUNT; i++)
 304:Generated_Source\PSoC5/CapSense_CSD_CSHL.c ****     {
 305:Generated_Source\PSoC5/CapSense_CSD_CSHL.c ****         pos = (i >> 3u);
 179              		.loc 1 305 0
 180 0012 E208     		lsrs	r2, r4, #3
 306:Generated_Source\PSoC5/CapSense_CSD_CSHL.c ****         enMask = 0x01u << (i & 0x07u);
 181              		.loc 1 306 0
 182 0014 04F00701 		and	r1, r4, #7
 183 0018 0123     		movs	r3, #1
 184 001a 8B40     		lsls	r3, r3, r1
 185              	.LVL16:
 307:Generated_Source\PSoC5/CapSense_CSD_CSHL.c ****         
 308:Generated_Source\PSoC5/CapSense_CSD_CSHL.c ****         /* Clear raw data if sensor is disabled from scanning process */
 309:Generated_Source\PSoC5/CapSense_CSD_CSHL.c ****         if((CapSense_CSD_sensorEnableMask[pos] & enMask) == 0u)
 186              		.loc 1 309 0
 187 001c 0749     		ldr	r1, .L18
 188 001e 8A5C     		ldrb	r2, [r1, r2]	@ zero_extendqisi2
 189 0020 1342     		tst	r3, r2
 190 0022 03D1     		bne	.L15
 310:Generated_Source\PSoC5/CapSense_CSD_CSHL.c ****         {
 311:Generated_Source\PSoC5/CapSense_CSD_CSHL.c ****             CapSense_CSD_sensorRaw[i] = 0u;
 191              		.loc 1 311 0
 192 0024 0022     		movs	r2, #0
 193 0026 064B     		ldr	r3, .L18+4
 194              	.LVL17:
 195 0028 23F81420 		strh	r2, [r3, r4, lsl #1]	@ movhi
 196              	.L15:
 312:Generated_Source\PSoC5/CapSense_CSD_CSHL.c ****         }
 313:Generated_Source\PSoC5/CapSense_CSD_CSHL.c ****         
 314:Generated_Source\PSoC5/CapSense_CSD_CSHL.c ****         /* Initialize baselines */
 315:Generated_Source\PSoC5/CapSense_CSD_CSHL.c ****         CapSense_CSD_BaseInit(i);
ARM GAS  C:\Users\aryan\AppData\Local\Temp\ccEOeQjh.s 			page 10


 197              		.loc 1 315 0 discriminator 2
 198 002c 2046     		mov	r0, r4
 199 002e FFF7FEFF 		bl	CapSense_CSD_BaseInit
 200              	.LVL18:
 303:Generated_Source\PSoC5/CapSense_CSD_CSHL.c ****     {
 201              		.loc 1 303 0 discriminator 2
 202 0032 0134     		adds	r4, r4, #1
 203              	.LVL19:
 204 0034 E4B2     		uxtb	r4, r4
 205              	.LVL20:
 206              	.L14:
 303:Generated_Source\PSoC5/CapSense_CSD_CSHL.c ****     {
 207              		.loc 1 303 0 is_stmt 0 discriminator 1
 208 0036 062C     		cmp	r4, #6
 209 0038 EBD9     		bls	.L16
 316:Generated_Source\PSoC5/CapSense_CSD_CSHL.c ****     }
 317:Generated_Source\PSoC5/CapSense_CSD_CSHL.c **** }  
 210              		.loc 1 317 0 is_stmt 1
 211 003a 10BD     		pop	{r4, pc}
 212              	.LVL21:
 213              	.L19:
 214              		.align	2
 215              	.L18:
 216 003c 00000000 		.word	CapSense_CSD_sensorEnableMask
 217 0040 00000000 		.word	CapSense_CSD_sensorRaw
 218              		.cfi_endproc
 219              	.LFE3:
 220              		.size	CapSense_CSD_InitializeEnabledBaselines, .-CapSense_CSD_InitializeEnabledBaselines
 221              		.section	.text.CapSense_CSD_UpdateSensorBaseline,"ax",%progbits
 222              		.align	2
 223              		.global	CapSense_CSD_UpdateSensorBaseline
 224              		.thumb
 225              		.thumb_func
 226              		.type	CapSense_CSD_UpdateSensorBaseline, %function
 227              	CapSense_CSD_UpdateSensorBaseline:
 228              	.LFB4:
 318:Generated_Source\PSoC5/CapSense_CSD_CSHL.c **** 
 319:Generated_Source\PSoC5/CapSense_CSD_CSHL.c **** 
 320:Generated_Source\PSoC5/CapSense_CSD_CSHL.c **** /*******************************************************************************
 321:Generated_Source\PSoC5/CapSense_CSD_CSHL.c **** * Function Name: CapSense_CSD_UpdateSensorBaseline
 322:Generated_Source\PSoC5/CapSense_CSD_CSHL.c **** ********************************************************************************
 323:Generated_Source\PSoC5/CapSense_CSD_CSHL.c **** *
 324:Generated_Source\PSoC5/CapSense_CSD_CSHL.c **** * Summary:
 325:Generated_Source\PSoC5/CapSense_CSD_CSHL.c **** *  Updates the CapSense_CSD_sensorBaseline[sensor] array element using the 
 326:Generated_Source\PSoC5/CapSense_CSD_CSHL.c **** *  LP filter with k = 256. The signal calculates the difference of count by 
 327:Generated_Source\PSoC5/CapSense_CSD_CSHL.c **** *  subtracting the previous baseline from the current raw count value and stores
 328:Generated_Source\PSoC5/CapSense_CSD_CSHL.c **** *  it in CapSense_CSD_SensorSignal[sensor]. 
 329:Generated_Source\PSoC5/CapSense_CSD_CSHL.c **** *  If auto reset option is enabled the baseline updated regards noise threshold. 
 330:Generated_Source\PSoC5/CapSense_CSD_CSHL.c **** *  If auto reset option is disabled the baseline stops updating if signal is 
 331:Generated_Source\PSoC5/CapSense_CSD_CSHL.c **** *  greater that zero and baseline loads with raw count value if signal is less 
 332:Generated_Source\PSoC5/CapSense_CSD_CSHL.c **** *  that noise threshold.
 333:Generated_Source\PSoC5/CapSense_CSD_CSHL.c **** *  Raw data filters are applied to the values if enabled before baseline 
 334:Generated_Source\PSoC5/CapSense_CSD_CSHL.c **** *  calculation.
 335:Generated_Source\PSoC5/CapSense_CSD_CSHL.c **** *
 336:Generated_Source\PSoC5/CapSense_CSD_CSHL.c **** * Parameters:
 337:Generated_Source\PSoC5/CapSense_CSD_CSHL.c **** *  sensor:  Sensor number.
 338:Generated_Source\PSoC5/CapSense_CSD_CSHL.c **** *
ARM GAS  C:\Users\aryan\AppData\Local\Temp\ccEOeQjh.s 			page 11


 339:Generated_Source\PSoC5/CapSense_CSD_CSHL.c **** * Return:
 340:Generated_Source\PSoC5/CapSense_CSD_CSHL.c **** *  None
 341:Generated_Source\PSoC5/CapSense_CSD_CSHL.c **** *
 342:Generated_Source\PSoC5/CapSense_CSD_CSHL.c **** * Global Variables:
 343:Generated_Source\PSoC5/CapSense_CSD_CSHL.c **** *  CapSense_CSD_sensorBaseline[]    - used to store baseline value.
 344:Generated_Source\PSoC5/CapSense_CSD_CSHL.c **** *  CapSense_CSD_sensorBaselineLow[] - used to store fraction byte of 
 345:Generated_Source\PSoC5/CapSense_CSD_CSHL.c **** *  baseline value.
 346:Generated_Source\PSoC5/CapSense_CSD_CSHL.c **** *  CapSense_CSD_sensorSignal[]      - used to store diffence between 
 347:Generated_Source\PSoC5/CapSense_CSD_CSHL.c **** *  current value of raw data and previous value of baseline.
 348:Generated_Source\PSoC5/CapSense_CSD_CSHL.c **** *  CapSense_CSD_rawFilterData1[]    - used to store previous sample of 
 349:Generated_Source\PSoC5/CapSense_CSD_CSHL.c **** *  any enabled raw data filter.
 350:Generated_Source\PSoC5/CapSense_CSD_CSHL.c **** *  CapSense_CSD_rawFilterData2[]    - used to store before previous sample
 351:Generated_Source\PSoC5/CapSense_CSD_CSHL.c **** *  of enabled raw data filter. Only required for median or average filters.
 352:Generated_Source\PSoC5/CapSense_CSD_CSHL.c **** *
 353:Generated_Source\PSoC5/CapSense_CSD_CSHL.c **** * Reentrant:
 354:Generated_Source\PSoC5/CapSense_CSD_CSHL.c **** *  No
 355:Generated_Source\PSoC5/CapSense_CSD_CSHL.c **** *
 356:Generated_Source\PSoC5/CapSense_CSD_CSHL.c **** *******************************************************************************/
 357:Generated_Source\PSoC5/CapSense_CSD_CSHL.c ****  void CapSense_CSD_UpdateSensorBaseline(uint8 sensor)
 358:Generated_Source\PSoC5/CapSense_CSD_CSHL.c ****                                  
 359:Generated_Source\PSoC5/CapSense_CSD_CSHL.c **** {
 229              		.loc 1 359 0
 230              		.cfi_startproc
 231              		@ args = 0, pretend = 0, frame = 0
 232              		@ frame_needed = 0, uses_anonymous_args = 0
 233              	.LVL22:
 234 0000 F8B5     		push	{r3, r4, r5, r6, r7, lr}
 235              		.cfi_def_cfa_offset 24
 236              		.cfi_offset 3, -24
 237              		.cfi_offset 4, -20
 238              		.cfi_offset 5, -16
 239              		.cfi_offset 6, -12
 240              		.cfi_offset 7, -8
 241              		.cfi_offset 14, -4
 242 0002 0446     		mov	r4, r0
 360:Generated_Source\PSoC5/CapSense_CSD_CSHL.c ****     uint32 calc;
 361:Generated_Source\PSoC5/CapSense_CSD_CSHL.c ****     uint16 tempRaw;
 362:Generated_Source\PSoC5/CapSense_CSD_CSHL.c ****     uint16 filteredRawData;
 363:Generated_Source\PSoC5/CapSense_CSD_CSHL.c ****     uint8 widget = CapSense_CSD_widgetNumber[sensor];
 243              		.loc 1 363 0
 244 0004 234B     		ldr	r3, .L30
 245 0006 1A5C     		ldrb	r2, [r3, r0]	@ zero_extendqisi2
 246              	.LVL23:
 364:Generated_Source\PSoC5/CapSense_CSD_CSHL.c ****     uint16 noiseThreshold = CapSense_CSD_noiseThreshold[widget];
 247              		.loc 1 364 0
 248 0008 234B     		ldr	r3, .L30+4
 249 000a 03EB4203 		add	r3, r3, r2, lsl #1
 250 000e 9E88     		ldrh	r6, [r3, #4]
 251              	.LVL24:
 365:Generated_Source\PSoC5/CapSense_CSD_CSHL.c ****     
 366:Generated_Source\PSoC5/CapSense_CSD_CSHL.c ****     #if (CapSense_CSD_TOTAL_GENERICS_COUNT)
 367:Generated_Source\PSoC5/CapSense_CSD_CSHL.c ****         /* Exclude generic widget */
 368:Generated_Source\PSoC5/CapSense_CSD_CSHL.c ****         if(widget < CapSense_CSD_END_OF_WIDGETS_INDEX)
 369:Generated_Source\PSoC5/CapSense_CSD_CSHL.c ****         {
 370:Generated_Source\PSoC5/CapSense_CSD_CSHL.c ****     #endif  /* CapSense_CSD_TOTAL_GENERICS_COUNT */
 371:Generated_Source\PSoC5/CapSense_CSD_CSHL.c ****     
 372:Generated_Source\PSoC5/CapSense_CSD_CSHL.c ****     filteredRawData = CapSense_CSD_sensorRaw[sensor];
ARM GAS  C:\Users\aryan\AppData\Local\Temp\ccEOeQjh.s 			page 12


 252              		.loc 1 372 0
 253 0010 224B     		ldr	r3, .L30+8
 254 0012 33F81030 		ldrh	r3, [r3, r0, lsl #1]
 255              	.LVL25:
 373:Generated_Source\PSoC5/CapSense_CSD_CSHL.c ****     
 374:Generated_Source\PSoC5/CapSense_CSD_CSHL.c ****     #if (CapSense_CSD_RAW_FILTER_MASK & CapSense_CSD_MEDIAN_FILTER)
 375:Generated_Source\PSoC5/CapSense_CSD_CSHL.c ****         tempRaw = filteredRawData;
 376:Generated_Source\PSoC5/CapSense_CSD_CSHL.c ****         filteredRawData = CapSense_CSD_MedianFilter(filteredRawData, CapSense_CSD_rawFilterData1[se
 377:Generated_Source\PSoC5/CapSense_CSD_CSHL.c ****                                                         CapSense_CSD_rawFilterData2[sensor]);
 378:Generated_Source\PSoC5/CapSense_CSD_CSHL.c ****         CapSense_CSD_rawFilterData2[sensor] = CapSense_CSD_rawFilterData1[sensor];
 379:Generated_Source\PSoC5/CapSense_CSD_CSHL.c ****         CapSense_CSD_rawFilterData1[sensor] = tempRaw;
 380:Generated_Source\PSoC5/CapSense_CSD_CSHL.c ****         
 381:Generated_Source\PSoC5/CapSense_CSD_CSHL.c ****     #elif (CapSense_CSD_RAW_FILTER_MASK & CapSense_CSD_AVERAGING_FILTER)
 382:Generated_Source\PSoC5/CapSense_CSD_CSHL.c ****         tempRaw = filteredRawData;
 383:Generated_Source\PSoC5/CapSense_CSD_CSHL.c ****         filteredRawData = CapSense_CSD_AveragingFilter(filteredRawData, CapSense_CSD_rawFilterData1
 384:Generated_Source\PSoC5/CapSense_CSD_CSHL.c ****                                                            CapSense_CSD_rawFilterData2[sensor]);
 385:Generated_Source\PSoC5/CapSense_CSD_CSHL.c ****         CapSense_CSD_rawFilterData2[sensor] = CapSense_CSD_rawFilterData1[sensor];
 386:Generated_Source\PSoC5/CapSense_CSD_CSHL.c ****         CapSense_CSD_rawFilterData1[sensor] = tempRaw;
 387:Generated_Source\PSoC5/CapSense_CSD_CSHL.c ****         
 388:Generated_Source\PSoC5/CapSense_CSD_CSHL.c ****     #elif (CapSense_CSD_RAW_FILTER_MASK & CapSense_CSD_IIR2_FILTER)
 389:Generated_Source\PSoC5/CapSense_CSD_CSHL.c ****         filteredRawData = CapSense_CSD_IIR2Filter(filteredRawData, CapSense_CSD_rawFilterData1[sens
 390:Generated_Source\PSoC5/CapSense_CSD_CSHL.c ****         CapSense_CSD_rawFilterData1[sensor] = filteredRawData;
 391:Generated_Source\PSoC5/CapSense_CSD_CSHL.c ****         
 392:Generated_Source\PSoC5/CapSense_CSD_CSHL.c ****     #elif (CapSense_CSD_RAW_FILTER_MASK & CapSense_CSD_IIR4_FILTER)
 393:Generated_Source\PSoC5/CapSense_CSD_CSHL.c ****         filteredRawData = CapSense_CSD_IIR4Filter(filteredRawData, CapSense_CSD_rawFilterData1[sens
 394:Generated_Source\PSoC5/CapSense_CSD_CSHL.c ****         CapSense_CSD_rawFilterData1[sensor] = filteredRawData;
 395:Generated_Source\PSoC5/CapSense_CSD_CSHL.c ****             
 396:Generated_Source\PSoC5/CapSense_CSD_CSHL.c ****     #elif (CapSense_CSD_RAW_FILTER_MASK & CapSense_CSD_JITTER_FILTER)
 397:Generated_Source\PSoC5/CapSense_CSD_CSHL.c ****         filteredRawData = CapSense_CSD_JitterFilter(filteredRawData, CapSense_CSD_rawFilterData1[se
 398:Generated_Source\PSoC5/CapSense_CSD_CSHL.c ****         CapSense_CSD_rawFilterData1[sensor] = filteredRawData;
 399:Generated_Source\PSoC5/CapSense_CSD_CSHL.c ****         
 400:Generated_Source\PSoC5/CapSense_CSD_CSHL.c ****     #elif (CapSense_CSD_RAW_FILTER_MASK & CapSense_CSD_IIR8_FILTER)
 401:Generated_Source\PSoC5/CapSense_CSD_CSHL.c ****         filteredRawData = CapSense_CSD_IIR8Filter(filteredRawData, CapSense_CSD_rawFilterData1[sens
 402:Generated_Source\PSoC5/CapSense_CSD_CSHL.c ****         CapSense_CSD_rawFilterData1[sensor] = filteredRawData;
 403:Generated_Source\PSoC5/CapSense_CSD_CSHL.c ****         
 404:Generated_Source\PSoC5/CapSense_CSD_CSHL.c ****     #elif (CapSense_CSD_RAW_FILTER_MASK & CapSense_CSD_IIR16_FILTER)
 405:Generated_Source\PSoC5/CapSense_CSD_CSHL.c ****         filteredRawData = CapSense_CSD_IIR16Filter(filteredRawData, CapSense_CSD_rawFilterData1[sen
 406:Generated_Source\PSoC5/CapSense_CSD_CSHL.c ****         CapSense_CSD_rawFilterData1[sensor] = filteredRawData;
 407:Generated_Source\PSoC5/CapSense_CSD_CSHL.c ****         
 408:Generated_Source\PSoC5/CapSense_CSD_CSHL.c ****     #else
 409:Generated_Source\PSoC5/CapSense_CSD_CSHL.c ****         /* No Raw filters */
 410:Generated_Source\PSoC5/CapSense_CSD_CSHL.c ****     #endif  /* (CapSense_CSD_RAW_FILTER_MASK & CapSense_CSD_MEDIAN_FILTER) */
 411:Generated_Source\PSoC5/CapSense_CSD_CSHL.c ****     
 412:Generated_Source\PSoC5/CapSense_CSD_CSHL.c ****     #if (CapSense_CSD_TUNING_METHOD == CapSense_CSD_AUTO_TUNING)
 413:Generated_Source\PSoC5/CapSense_CSD_CSHL.c ****         CapSense_CSD_CalculateThresholds(sensor);
 414:Generated_Source\PSoC5/CapSense_CSD_CSHL.c ****     #endif /* (CapSense_CSD_TUNING_METHOD == CapSense_CSD_AUTO_TUNING) */
 415:Generated_Source\PSoC5/CapSense_CSD_CSHL.c **** 
 416:Generated_Source\PSoC5/CapSense_CSD_CSHL.c **** 
 417:Generated_Source\PSoC5/CapSense_CSD_CSHL.c ****     /* Baseline calculation */
 418:Generated_Source\PSoC5/CapSense_CSD_CSHL.c ****     /* Calculate difference RawData[cur] - Baseline[prev] */
 419:Generated_Source\PSoC5/CapSense_CSD_CSHL.c ****     if(filteredRawData >= CapSense_CSD_sensorBaseline[sensor])
 256              		.loc 1 419 0
 257 0016 224A     		ldr	r2, .L30+12
 258              	.LVL26:
 259 0018 32F81010 		ldrh	r1, [r2, r0, lsl #1]
 260 001c 8B42     		cmp	r3, r1
 261 001e 03D3     		bcc	.L21
ARM GAS  C:\Users\aryan\AppData\Local\Temp\ccEOeQjh.s 			page 13


 420:Generated_Source\PSoC5/CapSense_CSD_CSHL.c ****     {
 421:Generated_Source\PSoC5/CapSense_CSD_CSHL.c ****         tempRaw = filteredRawData - CapSense_CSD_sensorBaseline[sensor];
 262              		.loc 1 421 0
 263 0020 5D1A     		subs	r5, r3, r1
 264 0022 ADB2     		uxth	r5, r5
 265              	.LVL27:
 422:Generated_Source\PSoC5/CapSense_CSD_CSHL.c ****         widget = 1u;    /* Positive difference - Calculate the Signal */
 266              		.loc 1 422 0
 267 0024 0127     		movs	r7, #1
 268 0026 02E0     		b	.L22
 269              	.LVL28:
 270              	.L21:
 423:Generated_Source\PSoC5/CapSense_CSD_CSHL.c ****     }
 424:Generated_Source\PSoC5/CapSense_CSD_CSHL.c ****     else
 425:Generated_Source\PSoC5/CapSense_CSD_CSHL.c ****     {
 426:Generated_Source\PSoC5/CapSense_CSD_CSHL.c ****         tempRaw = CapSense_CSD_sensorBaseline[sensor] - filteredRawData;
 271              		.loc 1 426 0
 272 0028 CD1A     		subs	r5, r1, r3
 273 002a ADB2     		uxth	r5, r5
 274              	.LVL29:
 427:Generated_Source\PSoC5/CapSense_CSD_CSHL.c ****         widget = 0u;    /* Negative difference - Do NOT calculate the Signal */
 275              		.loc 1 427 0
 276 002c 0027     		movs	r7, #0
 277              	.LVL30:
 278              	.L22:
 428:Generated_Source\PSoC5/CapSense_CSD_CSHL.c ****     }
 429:Generated_Source\PSoC5/CapSense_CSD_CSHL.c **** 
 430:Generated_Source\PSoC5/CapSense_CSD_CSHL.c ****     if((widget == 0u) && (tempRaw > (uint16) CapSense_CSD_NEGATIVE_NOISE_THRESHOLD))
 279              		.loc 1 430 0
 280 002e 87B9     		cbnz	r7, .L23
 281              		.loc 1 430 0 is_stmt 0 discriminator 1
 282 0030 142D     		cmp	r5, #20
 283 0032 0ED9     		bls	.L23
 431:Generated_Source\PSoC5/CapSense_CSD_CSHL.c ****     {
 432:Generated_Source\PSoC5/CapSense_CSD_CSHL.c ****         if(CapSense_CSD_lowBaselineResetCnt[sensor] >= CapSense_CSD_LOW_BASELINE_RESET)
 284              		.loc 1 432 0 is_stmt 1
 285 0034 1B4B     		ldr	r3, .L30+16
 286              	.LVL31:
 287 0036 1B5D     		ldrb	r3, [r3, r4]	@ zero_extendqisi2
 288 0038 042B     		cmp	r3, #4
 289 003a 06D9     		bls	.L24
 433:Generated_Source\PSoC5/CapSense_CSD_CSHL.c ****         {
 434:Generated_Source\PSoC5/CapSense_CSD_CSHL.c ****             CapSense_CSD_BaseInit(sensor);
 290              		.loc 1 434 0
 291 003c 2046     		mov	r0, r4
 292              	.LVL32:
 293 003e FFF7FEFF 		bl	CapSense_CSD_BaseInit
 294              	.LVL33:
 435:Generated_Source\PSoC5/CapSense_CSD_CSHL.c ****             CapSense_CSD_lowBaselineResetCnt[sensor] = 0u;
 295              		.loc 1 435 0
 296 0042 0022     		movs	r2, #0
 297 0044 174B     		ldr	r3, .L30+16
 298 0046 1A55     		strb	r2, [r3, r4]
 299 0048 17E0     		b	.L25
 300              	.LVL34:
 301              	.L24:
 436:Generated_Source\PSoC5/CapSense_CSD_CSHL.c ****         }
ARM GAS  C:\Users\aryan\AppData\Local\Temp\ccEOeQjh.s 			page 14


 437:Generated_Source\PSoC5/CapSense_CSD_CSHL.c ****         else
 438:Generated_Source\PSoC5/CapSense_CSD_CSHL.c ****         {
 439:Generated_Source\PSoC5/CapSense_CSD_CSHL.c ****             CapSense_CSD_lowBaselineResetCnt[sensor]++;
 302              		.loc 1 439 0
 303 004a 0133     		adds	r3, r3, #1
 304 004c 154A     		ldr	r2, .L30+16
 305 004e 1355     		strb	r3, [r2, r4]
 306 0050 13E0     		b	.L25
 307              	.LVL35:
 308              	.L23:
 440:Generated_Source\PSoC5/CapSense_CSD_CSHL.c ****         }
 441:Generated_Source\PSoC5/CapSense_CSD_CSHL.c ****     }
 442:Generated_Source\PSoC5/CapSense_CSD_CSHL.c ****     else
 443:Generated_Source\PSoC5/CapSense_CSD_CSHL.c ****     {
 444:Generated_Source\PSoC5/CapSense_CSD_CSHL.c ****         #if (CapSense_CSD_AUTO_RESET == CapSense_CSD_AUTO_RESET_DISABLE)
 445:Generated_Source\PSoC5/CapSense_CSD_CSHL.c ****             /* Update Baseline if lower that noiseThreshold */
 446:Generated_Source\PSoC5/CapSense_CSD_CSHL.c ****             if ( (tempRaw <= (uint16) noiseThreshold) || 
 309              		.loc 1 446 0
 310 0052 B542     		cmp	r5, r6
 311 0054 02D9     		bls	.L26
 312              		.loc 1 446 0 is_stmt 0 discriminator 1
 313 0056 132D     		cmp	r5, #19
 314 0058 0FD8     		bhi	.L25
 447:Generated_Source\PSoC5/CapSense_CSD_CSHL.c ****                  ((tempRaw < (uint16) CapSense_CSD_NEGATIVE_NOISE_THRESHOLD)
 448:Generated_Source\PSoC5/CapSense_CSD_CSHL.c ****                    && (widget == 0u)))
 315              		.loc 1 448 0 is_stmt 1
 316 005a 77B9     		cbnz	r7, .L25
 317              	.L26:
 318              	.LVL36:
 449:Generated_Source\PSoC5/CapSense_CSD_CSHL.c ****             {
 450:Generated_Source\PSoC5/CapSense_CSD_CSHL.c ****         #endif /* (CapSense_CSD_AUTO_RESET == CapSense_CSD_AUTO_RESET_DISABLE) */
 451:Generated_Source\PSoC5/CapSense_CSD_CSHL.c ****                 /* Make full Baseline 23 bits */
 452:Generated_Source\PSoC5/CapSense_CSD_CSHL.c ****                 calc = (uint32) CapSense_CSD_sensorBaseline[sensor] << 8u;
 453:Generated_Source\PSoC5/CapSense_CSD_CSHL.c ****                 calc |= (uint32) CapSense_CSD_sensorBaselineLow[sensor];
 319              		.loc 1 453 0
 320 005c 1248     		ldr	r0, .L30+20
 321              	.LVL37:
 322 005e 025D     		ldrb	r2, [r0, r4]	@ zero_extendqisi2
 323 0060 42EA0122 		orr	r2, r2, r1, lsl #8
 324              	.LVL38:
 454:Generated_Source\PSoC5/CapSense_CSD_CSHL.c **** 
 455:Generated_Source\PSoC5/CapSense_CSD_CSHL.c ****                 /* Add Raw Data to Baseline */
 456:Generated_Source\PSoC5/CapSense_CSD_CSHL.c ****                 calc += filteredRawData;
 325              		.loc 1 456 0
 326 0064 1344     		add	r3, r3, r2
 327              	.LVL39:
 457:Generated_Source\PSoC5/CapSense_CSD_CSHL.c **** 
 458:Generated_Source\PSoC5/CapSense_CSD_CSHL.c ****                 /* Sub the high Baseline */
 459:Generated_Source\PSoC5/CapSense_CSD_CSHL.c ****                 calc -= CapSense_CSD_sensorBaseline[sensor];
 328              		.loc 1 459 0
 329 0066 5B1A     		subs	r3, r3, r1
 330              	.LVL40:
 460:Generated_Source\PSoC5/CapSense_CSD_CSHL.c **** 
 461:Generated_Source\PSoC5/CapSense_CSD_CSHL.c ****                 /* Put Baseline and BaselineLow */
 462:Generated_Source\PSoC5/CapSense_CSD_CSHL.c ****                 CapSense_CSD_sensorBaseline[sensor] = ((uint16) (calc >> 8u));
 331              		.loc 1 462 0
 332 0068 C3F30F21 		ubfx	r1, r3, #8, #16
ARM GAS  C:\Users\aryan\AppData\Local\Temp\ccEOeQjh.s 			page 15


 333 006c 0C4A     		ldr	r2, .L30+12
 334 006e 22F81410 		strh	r1, [r2, r4, lsl #1]	@ movhi
 463:Generated_Source\PSoC5/CapSense_CSD_CSHL.c ****                 CapSense_CSD_sensorBaselineLow[sensor] = ((uint8) calc);
 335              		.loc 1 463 0
 336 0072 0355     		strb	r3, [r0, r4]
 464:Generated_Source\PSoC5/CapSense_CSD_CSHL.c **** 
 465:Generated_Source\PSoC5/CapSense_CSD_CSHL.c ****                 CapSense_CSD_lowBaselineResetCnt[sensor] = 0u;
 337              		.loc 1 465 0
 338 0074 0022     		movs	r2, #0
 339 0076 0B4B     		ldr	r3, .L30+16
 340              	.LVL41:
 341 0078 1A55     		strb	r2, [r3, r4]
 342              	.LVL42:
 343              	.L25:
 466:Generated_Source\PSoC5/CapSense_CSD_CSHL.c ****         #if (CapSense_CSD_AUTO_RESET == CapSense_CSD_AUTO_RESET_DISABLE)
 467:Generated_Source\PSoC5/CapSense_CSD_CSHL.c ****             }
 468:Generated_Source\PSoC5/CapSense_CSD_CSHL.c ****         #endif /* (CapSense_CSD_AUTO_RESET == CapSense_CSD_AUTO_RESET_DISABLE) */
 469:Generated_Source\PSoC5/CapSense_CSD_CSHL.c ****     }
 470:Generated_Source\PSoC5/CapSense_CSD_CSHL.c **** 
 471:Generated_Source\PSoC5/CapSense_CSD_CSHL.c ****     /* Calculate Signal if possitive difference > noiseThreshold */
 472:Generated_Source\PSoC5/CapSense_CSD_CSHL.c ****     if((tempRaw > (uint16) noiseThreshold) && (widget != 0u))
 344              		.loc 1 472 0
 345 007a B542     		cmp	r5, r6
 346 007c 04D9     		bls	.L27
 347              		.loc 1 472 0 is_stmt 0 discriminator 1
 348 007e 1FB1     		cbz	r7, .L27
 473:Generated_Source\PSoC5/CapSense_CSD_CSHL.c ****     {
 474:Generated_Source\PSoC5/CapSense_CSD_CSHL.c ****         #if (CapSense_CSD_SIGNAL_SIZE == CapSense_CSD_SIGNAL_SIZE_UINT8)
 475:Generated_Source\PSoC5/CapSense_CSD_CSHL.c ****             /* Over flow defence for uint8 */
 476:Generated_Source\PSoC5/CapSense_CSD_CSHL.c ****             if (tempRaw > 0xFFu)
 477:Generated_Source\PSoC5/CapSense_CSD_CSHL.c ****             {
 478:Generated_Source\PSoC5/CapSense_CSD_CSHL.c ****                 CapSense_CSD_sensorSignal[sensor] = 0xFFu;
 479:Generated_Source\PSoC5/CapSense_CSD_CSHL.c ****             }    
 480:Generated_Source\PSoC5/CapSense_CSD_CSHL.c ****             else 
 481:Generated_Source\PSoC5/CapSense_CSD_CSHL.c ****             {
 482:Generated_Source\PSoC5/CapSense_CSD_CSHL.c ****                 CapSense_CSD_sensorSignal[sensor] = ((uint8) tempRaw);
 483:Generated_Source\PSoC5/CapSense_CSD_CSHL.c ****             }
 484:Generated_Source\PSoC5/CapSense_CSD_CSHL.c ****         #else
 485:Generated_Source\PSoC5/CapSense_CSD_CSHL.c ****             CapSense_CSD_sensorSignal[sensor] = ((uint16) tempRaw);
 349              		.loc 1 485 0 is_stmt 1
 350 0080 0A4B     		ldr	r3, .L30+24
 351 0082 23F81450 		strh	r5, [r3, r4, lsl #1]	@ movhi
 352 0086 F8BD     		pop	{r3, r4, r5, r6, r7, pc}
 353              	.LVL43:
 354              	.L27:
 486:Generated_Source\PSoC5/CapSense_CSD_CSHL.c ****         #endif  /* (CapSense_CSD_SIGNAL_SIZE == CapSense_CSD_SIGNAL_SIZE_UINT8) */
 487:Generated_Source\PSoC5/CapSense_CSD_CSHL.c ****     }
 488:Generated_Source\PSoC5/CapSense_CSD_CSHL.c ****     else
 489:Generated_Source\PSoC5/CapSense_CSD_CSHL.c ****     {
 490:Generated_Source\PSoC5/CapSense_CSD_CSHL.c ****         /* Signal is zero */
 491:Generated_Source\PSoC5/CapSense_CSD_CSHL.c ****         CapSense_CSD_sensorSignal[sensor] = 0u;
 355              		.loc 1 491 0
 356 0088 0022     		movs	r2, #0
 357 008a 084B     		ldr	r3, .L30+24
 358 008c 23F81420 		strh	r2, [r3, r4, lsl #1]	@ movhi
 359 0090 F8BD     		pop	{r3, r4, r5, r6, r7, pc}
 360              	.LVL44:
ARM GAS  C:\Users\aryan\AppData\Local\Temp\ccEOeQjh.s 			page 16


 361              	.L31:
 362 0092 00BF     		.align	2
 363              	.L30:
 364 0094 00000000 		.word	CapSense_CSD_widgetNumber
 365 0098 00000000 		.word	.LANCHOR0
 366 009c 00000000 		.word	CapSense_CSD_sensorRaw
 367 00a0 00000000 		.word	CapSense_CSD_sensorBaseline
 368 00a4 00000000 		.word	CapSense_CSD_lowBaselineResetCnt
 369 00a8 00000000 		.word	CapSense_CSD_sensorBaselineLow
 370 00ac 00000000 		.word	CapSense_CSD_sensorSignal
 371              		.cfi_endproc
 372              	.LFE4:
 373              		.size	CapSense_CSD_UpdateSensorBaseline, .-CapSense_CSD_UpdateSensorBaseline
 374              		.section	.text.CapSense_CSD_UpdateEnabledBaselines,"ax",%progbits
 375              		.align	2
 376              		.global	CapSense_CSD_UpdateEnabledBaselines
 377              		.thumb
 378              		.thumb_func
 379              		.type	CapSense_CSD_UpdateEnabledBaselines, %function
 380              	CapSense_CSD_UpdateEnabledBaselines:
 381              	.LFB5:
 492:Generated_Source\PSoC5/CapSense_CSD_CSHL.c ****     }
 493:Generated_Source\PSoC5/CapSense_CSD_CSHL.c **** 
 494:Generated_Source\PSoC5/CapSense_CSD_CSHL.c ****     #if (CapSense_CSD_TOTAL_GENERICS_COUNT)
 495:Generated_Source\PSoC5/CapSense_CSD_CSHL.c ****         /* Exclude generic widget */
 496:Generated_Source\PSoC5/CapSense_CSD_CSHL.c ****         }
 497:Generated_Source\PSoC5/CapSense_CSD_CSHL.c ****     #endif  /* CapSense_CSD_TOTAL_GENERICS_COUNT */
 498:Generated_Source\PSoC5/CapSense_CSD_CSHL.c **** }
 499:Generated_Source\PSoC5/CapSense_CSD_CSHL.c **** 
 500:Generated_Source\PSoC5/CapSense_CSD_CSHL.c **** 
 501:Generated_Source\PSoC5/CapSense_CSD_CSHL.c **** /*******************************************************************************
 502:Generated_Source\PSoC5/CapSense_CSD_CSHL.c **** * Function Name: CapSense_CSD_UpdateEnabledBaselines
 503:Generated_Source\PSoC5/CapSense_CSD_CSHL.c **** ********************************************************************************
 504:Generated_Source\PSoC5/CapSense_CSD_CSHL.c **** *
 505:Generated_Source\PSoC5/CapSense_CSD_CSHL.c **** * Summary:
 506:Generated_Source\PSoC5/CapSense_CSD_CSHL.c **** *  Checks CapSense_CSD_sensorEnableMask[] array and calls the 
 507:Generated_Source\PSoC5/CapSense_CSD_CSHL.c **** *  CapSense_CSD_UpdateSensorBaseline function to update the baselines 
 508:Generated_Source\PSoC5/CapSense_CSD_CSHL.c **** *  for enabled sensors.
 509:Generated_Source\PSoC5/CapSense_CSD_CSHL.c **** *
 510:Generated_Source\PSoC5/CapSense_CSD_CSHL.c **** * Parameters:
 511:Generated_Source\PSoC5/CapSense_CSD_CSHL.c **** *  None
 512:Generated_Source\PSoC5/CapSense_CSD_CSHL.c **** *
 513:Generated_Source\PSoC5/CapSense_CSD_CSHL.c **** * Return:
 514:Generated_Source\PSoC5/CapSense_CSD_CSHL.c **** *  None
 515:Generated_Source\PSoC5/CapSense_CSD_CSHL.c **** *
 516:Generated_Source\PSoC5/CapSense_CSD_CSHL.c **** * Global Variables:
 517:Generated_Source\PSoC5/CapSense_CSD_CSHL.c **** *  CapSense_CSD_sensorEnableMask[] - used to store the sensor scanning 
 518:Generated_Source\PSoC5/CapSense_CSD_CSHL.c **** *  state.
 519:Generated_Source\PSoC5/CapSense_CSD_CSHL.c **** *  CapSense_CSD_sensorEnableMask[0] contains the masked bits for sensors 
 520:Generated_Source\PSoC5/CapSense_CSD_CSHL.c **** *   0 through 7 (sensor 0 is bit 0, sensor 1 is bit 1).
 521:Generated_Source\PSoC5/CapSense_CSD_CSHL.c **** *  CapSense_CSD_sensorEnableMask[1] contains the masked bits for 
 522:Generated_Source\PSoC5/CapSense_CSD_CSHL.c **** *  sensors 8 through 15 (if needed), and so on.
 523:Generated_Source\PSoC5/CapSense_CSD_CSHL.c **** *  0 - sensor doesn't scan by CapSense_CSD_ScanEnabledWidgets().
 524:Generated_Source\PSoC5/CapSense_CSD_CSHL.c **** *  1 - sensor scans by CapSense_CSD_ScanEnabledWidgets().
 525:Generated_Source\PSoC5/CapSense_CSD_CSHL.c **** *
 526:Generated_Source\PSoC5/CapSense_CSD_CSHL.c **** * Reentrant:
 527:Generated_Source\PSoC5/CapSense_CSD_CSHL.c **** *  No
ARM GAS  C:\Users\aryan\AppData\Local\Temp\ccEOeQjh.s 			page 17


 528:Generated_Source\PSoC5/CapSense_CSD_CSHL.c **** *
 529:Generated_Source\PSoC5/CapSense_CSD_CSHL.c **** *******************************************************************************/
 530:Generated_Source\PSoC5/CapSense_CSD_CSHL.c ****  void CapSense_CSD_UpdateEnabledBaselines(void)
 531:Generated_Source\PSoC5/CapSense_CSD_CSHL.c ****                                  
 532:Generated_Source\PSoC5/CapSense_CSD_CSHL.c **** {
 382              		.loc 1 532 0
 383              		.cfi_startproc
 384              		@ args = 0, pretend = 0, frame = 0
 385              		@ frame_needed = 0, uses_anonymous_args = 0
 386 0000 10B5     		push	{r4, lr}
 387              		.cfi_def_cfa_offset 8
 388              		.cfi_offset 4, -8
 389              		.cfi_offset 14, -4
 390              	.LVL45:
 533:Generated_Source\PSoC5/CapSense_CSD_CSHL.c ****     uint8 i;
 534:Generated_Source\PSoC5/CapSense_CSD_CSHL.c ****     uint8 pos;
 535:Generated_Source\PSoC5/CapSense_CSD_CSHL.c ****     uint8 enMask;
 536:Generated_Source\PSoC5/CapSense_CSD_CSHL.c ****     
 537:Generated_Source\PSoC5/CapSense_CSD_CSHL.c ****     for(i = 0u; i < CapSense_CSD_TOTAL_SENSOR_COUNT; i++)
 391              		.loc 1 537 0
 392 0002 0024     		movs	r4, #0
 393 0004 0DE0     		b	.L33
 394              	.LVL46:
 395              	.L35:
 538:Generated_Source\PSoC5/CapSense_CSD_CSHL.c ****     {
 539:Generated_Source\PSoC5/CapSense_CSD_CSHL.c ****         pos = (i >> 3u);
 396              		.loc 1 539 0
 397 0006 E208     		lsrs	r2, r4, #3
 540:Generated_Source\PSoC5/CapSense_CSD_CSHL.c ****         enMask = (uint8)(0x01u << (i & 0x07u));
 398              		.loc 1 540 0
 399 0008 04F00701 		and	r1, r4, #7
 400 000c 0123     		movs	r3, #1
 401 000e 8B40     		lsls	r3, r3, r1
 402              	.LVL47:
 541:Generated_Source\PSoC5/CapSense_CSD_CSHL.c ****         if((CapSense_CSD_sensorEnableMask[pos] & enMask) != 0u)
 403              		.loc 1 541 0
 404 0010 0549     		ldr	r1, .L37
 405 0012 8A5C     		ldrb	r2, [r1, r2]	@ zero_extendqisi2
 406 0014 1342     		tst	r3, r2
 407 0016 02D0     		beq	.L34
 542:Generated_Source\PSoC5/CapSense_CSD_CSHL.c ****         {
 543:Generated_Source\PSoC5/CapSense_CSD_CSHL.c ****             CapSense_CSD_UpdateSensorBaseline(i);
 408              		.loc 1 543 0
 409 0018 2046     		mov	r0, r4
 410 001a FFF7FEFF 		bl	CapSense_CSD_UpdateSensorBaseline
 411              	.LVL48:
 412              	.L34:
 537:Generated_Source\PSoC5/CapSense_CSD_CSHL.c ****     {
 413              		.loc 1 537 0 discriminator 2
 414 001e 0134     		adds	r4, r4, #1
 415              	.LVL49:
 416 0020 E4B2     		uxtb	r4, r4
 417              	.LVL50:
 418              	.L33:
 537:Generated_Source\PSoC5/CapSense_CSD_CSHL.c ****     {
 419              		.loc 1 537 0 is_stmt 0 discriminator 1
 420 0022 062C     		cmp	r4, #6
ARM GAS  C:\Users\aryan\AppData\Local\Temp\ccEOeQjh.s 			page 18


 421 0024 EFD9     		bls	.L35
 544:Generated_Source\PSoC5/CapSense_CSD_CSHL.c ****         }
 545:Generated_Source\PSoC5/CapSense_CSD_CSHL.c ****     }
 546:Generated_Source\PSoC5/CapSense_CSD_CSHL.c **** }
 422              		.loc 1 546 0 is_stmt 1
 423 0026 10BD     		pop	{r4, pc}
 424              	.LVL51:
 425              	.L38:
 426              		.align	2
 427              	.L37:
 428 0028 00000000 		.word	CapSense_CSD_sensorEnableMask
 429              		.cfi_endproc
 430              	.LFE5:
 431              		.size	CapSense_CSD_UpdateEnabledBaselines, .-CapSense_CSD_UpdateEnabledBaselines
 432              		.section	.text.CapSense_CSD_CheckIsSensorActive,"ax",%progbits
 433              		.align	2
 434              		.global	CapSense_CSD_CheckIsSensorActive
 435              		.thumb
 436              		.thumb_func
 437              		.type	CapSense_CSD_CheckIsSensorActive, %function
 438              	CapSense_CSD_CheckIsSensorActive:
 439              	.LFB6:
 547:Generated_Source\PSoC5/CapSense_CSD_CSHL.c **** 
 548:Generated_Source\PSoC5/CapSense_CSD_CSHL.c **** 
 549:Generated_Source\PSoC5/CapSense_CSD_CSHL.c **** /*******************************************************************************
 550:Generated_Source\PSoC5/CapSense_CSD_CSHL.c **** * Function Name: CapSense_CSD_CheckIsSensorActive
 551:Generated_Source\PSoC5/CapSense_CSD_CSHL.c **** ********************************************************************************
 552:Generated_Source\PSoC5/CapSense_CSD_CSHL.c **** *
 553:Generated_Source\PSoC5/CapSense_CSD_CSHL.c **** * Summary:
 554:Generated_Source\PSoC5/CapSense_CSD_CSHL.c **** *  Compares the CapSense_CSD_SensorSignal[sensor] array element to finger
 555:Generated_Source\PSoC5/CapSense_CSD_CSHL.c **** *  threshold of widget it belongs to. The hysteresis and debounce are taken into 
 556:Generated_Source\PSoC5/CapSense_CSD_CSHL.c **** *  account. The hysteresis is added or subtracted from the finger threshold 
 557:Generated_Source\PSoC5/CapSense_CSD_CSHL.c **** *  based on whether the sensor is currently active. 
 558:Generated_Source\PSoC5/CapSense_CSD_CSHL.c **** *  If the sensor is active, the threshold is lowered by the hysteresis amount.
 559:Generated_Source\PSoC5/CapSense_CSD_CSHL.c **** *  If the sensor is inactive, the threshold is raised by the hysteresis amount.
 560:Generated_Source\PSoC5/CapSense_CSD_CSHL.c **** *  The debounce counter added to the sensor active transition.
 561:Generated_Source\PSoC5/CapSense_CSD_CSHL.c **** *  This function updates CapSense_CSD_SensorOnMask[] array element.
 562:Generated_Source\PSoC5/CapSense_CSD_CSHL.c **** *
 563:Generated_Source\PSoC5/CapSense_CSD_CSHL.c **** * Parameters:
 564:Generated_Source\PSoC5/CapSense_CSD_CSHL.c **** *  sensor:  Sensor number.
 565:Generated_Source\PSoC5/CapSense_CSD_CSHL.c **** *
 566:Generated_Source\PSoC5/CapSense_CSD_CSHL.c **** * Return:
 567:Generated_Source\PSoC5/CapSense_CSD_CSHL.c **** *  Returns sensor state 1 if active, 0 if not active.
 568:Generated_Source\PSoC5/CapSense_CSD_CSHL.c **** *
 569:Generated_Source\PSoC5/CapSense_CSD_CSHL.c **** * Global Variables:
 570:Generated_Source\PSoC5/CapSense_CSD_CSHL.c **** *  CapSense_CSD_sensorSignal[]      - used to store diffence between 
 571:Generated_Source\PSoC5/CapSense_CSD_CSHL.c **** *  current value of raw data and previous value of baseline.
 572:Generated_Source\PSoC5/CapSense_CSD_CSHL.c **** *  CapSense_CSD_debounceCounter[]   - used to store current debounce 
 573:Generated_Source\PSoC5/CapSense_CSD_CSHL.c **** *  counter of sensor. Widget which has this parameter are buttons, matrix 
 574:Generated_Source\PSoC5/CapSense_CSD_CSHL.c **** *  buttons, proximity, guard. All other widgets haven't debounce parameter
 575:Generated_Source\PSoC5/CapSense_CSD_CSHL.c **** *  and use the last element of this array with value 0 (it means no debounce).
 576:Generated_Source\PSoC5/CapSense_CSD_CSHL.c **** *  CapSense_CSD_sensorOnMask[] - used to store sensors on/off state.
 577:Generated_Source\PSoC5/CapSense_CSD_CSHL.c **** *  CapSense_CSD_sensorOnMask[0] contains the masked bits for sensors 
 578:Generated_Source\PSoC5/CapSense_CSD_CSHL.c **** *   0 through 7 (sensor 0 is bit 0, sensor 1 is bit 1).
 579:Generated_Source\PSoC5/CapSense_CSD_CSHL.c **** *  CapSense_CSD_sensorEnableMask[1] contains the masked bits for 
 580:Generated_Source\PSoC5/CapSense_CSD_CSHL.c **** *  sensors 8 through 15 (if needed), and so on.
 581:Generated_Source\PSoC5/CapSense_CSD_CSHL.c **** *  0 - sensor is inactive.
ARM GAS  C:\Users\aryan\AppData\Local\Temp\ccEOeQjh.s 			page 19


 582:Generated_Source\PSoC5/CapSense_CSD_CSHL.c **** *  1 - sensor is active.
 583:Generated_Source\PSoC5/CapSense_CSD_CSHL.c **** *
 584:Generated_Source\PSoC5/CapSense_CSD_CSHL.c **** * Reentrant:
 585:Generated_Source\PSoC5/CapSense_CSD_CSHL.c **** *  No
 586:Generated_Source\PSoC5/CapSense_CSD_CSHL.c **** *
 587:Generated_Source\PSoC5/CapSense_CSD_CSHL.c **** *******************************************************************************/
 588:Generated_Source\PSoC5/CapSense_CSD_CSHL.c **** uint8 CapSense_CSD_CheckIsSensorActive(uint8 sensor)
 589:Generated_Source\PSoC5/CapSense_CSD_CSHL.c ****                                   
 590:Generated_Source\PSoC5/CapSense_CSD_CSHL.c **** {
 440              		.loc 1 590 0
 441              		.cfi_startproc
 442              		@ args = 0, pretend = 0, frame = 0
 443              		@ frame_needed = 0, uses_anonymous_args = 0
 444              	.LVL52:
 445 0000 F0B5     		push	{r4, r5, r6, r7, lr}
 446              		.cfi_def_cfa_offset 20
 447              		.cfi_offset 4, -20
 448              		.cfi_offset 5, -16
 449              		.cfi_offset 6, -12
 450              		.cfi_offset 7, -8
 451              		.cfi_offset 14, -4
 591:Generated_Source\PSoC5/CapSense_CSD_CSHL.c ****     uint8 debounceIndex;
 592:Generated_Source\PSoC5/CapSense_CSD_CSHL.c ****     /* Get On/Off mask */
 593:Generated_Source\PSoC5/CapSense_CSD_CSHL.c ****     uint8 pos = (sensor >> 3u);
 452              		.loc 1 593 0
 453 0002 C408     		lsrs	r4, r0, #3
 454              	.LVL53:
 594:Generated_Source\PSoC5/CapSense_CSD_CSHL.c ****     uint8 onMask = 0x01u << (sensor & 0x07u);
 455              		.loc 1 594 0
 456 0004 00F00702 		and	r2, r0, #7
 457 0008 0123     		movs	r3, #1
 458 000a 9340     		lsls	r3, r3, r2
 459 000c DBB2     		uxtb	r3, r3
 460              	.LVL54:
 595:Generated_Source\PSoC5/CapSense_CSD_CSHL.c ****     /* Prepare to find debounce counter index */
 596:Generated_Source\PSoC5/CapSense_CSD_CSHL.c ****     uint8 widget = CapSense_CSD_widgetNumber[sensor];
 461              		.loc 1 596 0
 462 000e 1E4A     		ldr	r2, .L48
 463 0010 125C     		ldrb	r2, [r2, r0]	@ zero_extendqisi2
 464              	.LVL55:
 597:Generated_Source\PSoC5/CapSense_CSD_CSHL.c ****     uint16 fingerThreshold = CapSense_CSD_fingerThreshold[widget];
 465              		.loc 1 597 0
 466 0012 1E4D     		ldr	r5, .L48+4
 467 0014 05EB4206 		add	r6, r5, r2, lsl #1
 468 0018 B789     		ldrh	r7, [r6, #12]
 469              	.LVL56:
 598:Generated_Source\PSoC5/CapSense_CSD_CSHL.c ****     uint16 hysteresis = CapSense_CSD_hysteresis[widget];
 470              		.loc 1 598 0
 471 001a B18A     		ldrh	r1, [r6, #20]
 472              	.LVL57:
 599:Generated_Source\PSoC5/CapSense_CSD_CSHL.c ****     uint8 debounce = CapSense_CSD_debounce[widget];
 473              		.loc 1 599 0
 474 001c AE5C     		ldrb	r6, [r5, r2]	@ zero_extendqisi2
 475              	.LVL58:
 600:Generated_Source\PSoC5/CapSense_CSD_CSHL.c ****     
 601:Generated_Source\PSoC5/CapSense_CSD_CSHL.c ****     if (widget < CapSense_CSD_TOTAL_CENTROIDS_COUNT)
 476              		.loc 1 601 0
ARM GAS  C:\Users\aryan\AppData\Local\Temp\ccEOeQjh.s 			page 20


 477 001e 22B9     		cbnz	r2, .L40
 478              	.LVL59:
 602:Generated_Source\PSoC5/CapSense_CSD_CSHL.c ****     {
 603:Generated_Source\PSoC5/CapSense_CSD_CSHL.c ****         debounceIndex = CapSense_CSD_UNUSED_DEBOUNCE_COUNTER_INDEX;
 604:Generated_Source\PSoC5/CapSense_CSD_CSHL.c ****         CapSense_CSD_debounceCounter[debounceIndex] = 1u;
 479              		.loc 1 604 0
 480 0020 0125     		movs	r5, #1
 481 0022 1B4A     		ldr	r2, .L48+8
 482              	.LVL60:
 483 0024 9570     		strb	r5, [r2, #2]
 603:Generated_Source\PSoC5/CapSense_CSD_CSHL.c ****         CapSense_CSD_debounceCounter[debounceIndex] = 1u;
 484              		.loc 1 603 0
 485 0026 0222     		movs	r2, #2
 486 0028 01E0     		b	.L41
 487              	.LVL61:
 488              	.L40:
 605:Generated_Source\PSoC5/CapSense_CSD_CSHL.c ****     }
 606:Generated_Source\PSoC5/CapSense_CSD_CSHL.c ****     else
 607:Generated_Source\PSoC5/CapSense_CSD_CSHL.c ****     {
 608:Generated_Source\PSoC5/CapSense_CSD_CSHL.c ****         debounceIndex = widget - (CapSense_CSD_END_OF_TOUCH_PAD_INDEX + 1);
 489              		.loc 1 608 0
 490 002a 013A     		subs	r2, r2, #1
 491              	.LVL62:
 492 002c D2B2     		uxtb	r2, r2
 493              	.LVL63:
 494              	.L41:
 609:Generated_Source\PSoC5/CapSense_CSD_CSHL.c ****     }
 610:Generated_Source\PSoC5/CapSense_CSD_CSHL.c **** 
 611:Generated_Source\PSoC5/CapSense_CSD_CSHL.c ****     
 612:Generated_Source\PSoC5/CapSense_CSD_CSHL.c ****     /* Was on */
 613:Generated_Source\PSoC5/CapSense_CSD_CSHL.c ****     if (0u != (CapSense_CSD_sensorOnMask[pos] & onMask))
 495              		.loc 1 613 0
 496 002e 194D     		ldr	r5, .L48+12
 497 0030 2D5D     		ldrb	r5, [r5, r4]	@ zero_extendqisi2
 498 0032 2B42     		tst	r3, r5
 499 0034 0DD0     		beq	.L42
 614:Generated_Source\PSoC5/CapSense_CSD_CSHL.c ****     {
 615:Generated_Source\PSoC5/CapSense_CSD_CSHL.c ****         /* Hysteresis minus */
 616:Generated_Source\PSoC5/CapSense_CSD_CSHL.c ****         if (CapSense_CSD_sensorSignal[sensor] < (fingerThreshold - hysteresis))
 500              		.loc 1 616 0
 501 0036 DFF860E0 		ldr	lr, .L48+16
 502 003a 3EF81000 		ldrh	r0, [lr, r0, lsl #1]
 503              	.LVL64:
 504 003e 791A     		subs	r1, r7, r1
 505              	.LVL65:
 506 0040 8842     		cmp	r0, r1
 507 0042 1BDA     		bge	.L43
 617:Generated_Source\PSoC5/CapSense_CSD_CSHL.c ****         {
 618:Generated_Source\PSoC5/CapSense_CSD_CSHL.c ****             CapSense_CSD_sensorOnMask[pos] &= (uint8)~onMask;
 508              		.loc 1 618 0
 509 0044 25EA0305 		bic	r5, r5, r3
 510 0048 1249     		ldr	r1, .L48+12
 511 004a 0D55     		strb	r5, [r1, r4]
 619:Generated_Source\PSoC5/CapSense_CSD_CSHL.c ****             CapSense_CSD_debounceCounter[debounceIndex] = debounce; 
 512              		.loc 1 619 0
 513 004c 1049     		ldr	r1, .L48+8
 514 004e 8E54     		strb	r6, [r1, r2]
ARM GAS  C:\Users\aryan\AppData\Local\Temp\ccEOeQjh.s 			page 21


 515 0050 14E0     		b	.L43
 516              	.LVL66:
 517              	.L42:
 620:Generated_Source\PSoC5/CapSense_CSD_CSHL.c ****         }
 621:Generated_Source\PSoC5/CapSense_CSD_CSHL.c ****     }
 622:Generated_Source\PSoC5/CapSense_CSD_CSHL.c ****     else    /* Was off */
 623:Generated_Source\PSoC5/CapSense_CSD_CSHL.c ****     {
 624:Generated_Source\PSoC5/CapSense_CSD_CSHL.c ****         /* Hysteresis plus */
 625:Generated_Source\PSoC5/CapSense_CSD_CSHL.c ****         if (CapSense_CSD_sensorSignal[sensor] > (fingerThreshold + hysteresis))
 518              		.loc 1 625 0
 519 0052 DFF844E0 		ldr	lr, .L48+16
 520 0056 3EF81000 		ldrh	r0, [lr, r0, lsl #1]
 521              	.LVL67:
 522 005a 3944     		add	r1, r1, r7
 523              	.LVL68:
 524 005c 8842     		cmp	r0, r1
 525 005e 0BDD     		ble	.L44
 626:Generated_Source\PSoC5/CapSense_CSD_CSHL.c ****         {
 627:Generated_Source\PSoC5/CapSense_CSD_CSHL.c ****             /* Sensor active, decrement debounce counter */
 628:Generated_Source\PSoC5/CapSense_CSD_CSHL.c ****             if (CapSense_CSD_debounceCounter[debounceIndex] <= 1u)
 526              		.loc 1 628 0
 527 0060 1146     		mov	r1, r2
 528 0062 0B48     		ldr	r0, .L48+8
 529 0064 825C     		ldrb	r2, [r0, r2]	@ zero_extendqisi2
 530              	.LVL69:
 531 0066 012A     		cmp	r2, #1
 532 0068 02D8     		bhi	.L45
 629:Generated_Source\PSoC5/CapSense_CSD_CSHL.c ****             {
 630:Generated_Source\PSoC5/CapSense_CSD_CSHL.c ****                 CapSense_CSD_sensorOnMask[pos] |= onMask; 
 533              		.loc 1 630 0
 534 006a 1D43     		orrs	r5, r5, r3
 535 006c 0948     		ldr	r0, .L48+12
 536 006e 0555     		strb	r5, [r0, r4]
 537              	.L45:
 631:Generated_Source\PSoC5/CapSense_CSD_CSHL.c ****             }
 632:Generated_Source\PSoC5/CapSense_CSD_CSHL.c ****             CapSense_CSD_debounceCounter[debounceIndex]--;
 538              		.loc 1 632 0
 539 0070 013A     		subs	r2, r2, #1
 540 0072 0748     		ldr	r0, .L48+8
 541 0074 4254     		strb	r2, [r0, r1]
 542 0076 01E0     		b	.L43
 543              	.LVL70:
 544              	.L44:
 633:Generated_Source\PSoC5/CapSense_CSD_CSHL.c ****         }
 634:Generated_Source\PSoC5/CapSense_CSD_CSHL.c ****         else
 635:Generated_Source\PSoC5/CapSense_CSD_CSHL.c ****         {
 636:Generated_Source\PSoC5/CapSense_CSD_CSHL.c ****             /* Sensor inactive - reset Debounce counter */
 637:Generated_Source\PSoC5/CapSense_CSD_CSHL.c ****             CapSense_CSD_debounceCounter[debounceIndex] = debounce;
 545              		.loc 1 637 0
 546 0078 0549     		ldr	r1, .L48+8
 547 007a 8E54     		strb	r6, [r1, r2]
 548              	.LVL71:
 549              	.L43:
 638:Generated_Source\PSoC5/CapSense_CSD_CSHL.c ****         }
 639:Generated_Source\PSoC5/CapSense_CSD_CSHL.c ****     }
 640:Generated_Source\PSoC5/CapSense_CSD_CSHL.c ****     
 641:Generated_Source\PSoC5/CapSense_CSD_CSHL.c ****     return (((CapSense_CSD_sensorOnMask[pos] & onMask) != 0u) ? 1u : 0u);
ARM GAS  C:\Users\aryan\AppData\Local\Temp\ccEOeQjh.s 			page 22


 550              		.loc 1 641 0
 551 007c 054A     		ldr	r2, .L48+12
 552 007e 105D     		ldrb	r0, [r2, r4]	@ zero_extendqisi2
 553 0080 1840     		ands	r0, r3, r0
 554 0082 00D0     		beq	.L46
 555 0084 0120     		movs	r0, #1
 556              	.L46:
 642:Generated_Source\PSoC5/CapSense_CSD_CSHL.c **** }
 557              		.loc 1 642 0 discriminator 4
 558 0086 F0BD     		pop	{r4, r5, r6, r7, pc}
 559              	.LVL72:
 560              	.L49:
 561              		.align	2
 562              	.L48:
 563 0088 00000000 		.word	CapSense_CSD_widgetNumber
 564 008c 00000000 		.word	.LANCHOR0
 565 0090 00000000 		.word	.LANCHOR1
 566 0094 00000000 		.word	CapSense_CSD_sensorOnMask
 567 0098 00000000 		.word	CapSense_CSD_sensorSignal
 568              		.cfi_endproc
 569              	.LFE6:
 570              		.size	CapSense_CSD_CheckIsSensorActive, .-CapSense_CSD_CheckIsSensorActive
 571              		.section	.text.CapSense_CSD_CheckIsWidgetActive,"ax",%progbits
 572              		.align	2
 573              		.global	CapSense_CSD_CheckIsWidgetActive
 574              		.thumb
 575              		.thumb_func
 576              		.type	CapSense_CSD_CheckIsWidgetActive, %function
 577              	CapSense_CSD_CheckIsWidgetActive:
 578              	.LFB7:
 643:Generated_Source\PSoC5/CapSense_CSD_CSHL.c **** 
 644:Generated_Source\PSoC5/CapSense_CSD_CSHL.c **** 
 645:Generated_Source\PSoC5/CapSense_CSD_CSHL.c **** /*******************************************************************************
 646:Generated_Source\PSoC5/CapSense_CSD_CSHL.c **** * Function Name: CapSense_CSD_CheckIsWidgetActive
 647:Generated_Source\PSoC5/CapSense_CSD_CSHL.c **** ********************************************************************************
 648:Generated_Source\PSoC5/CapSense_CSD_CSHL.c **** *
 649:Generated_Source\PSoC5/CapSense_CSD_CSHL.c **** * Summary:
 650:Generated_Source\PSoC5/CapSense_CSD_CSHL.c **** *  Use function CapSense_CSD_CheckIsSensorActive() to update 
 651:Generated_Source\PSoC5/CapSense_CSD_CSHL.c **** *  CapSense_CSD_sensorOnMask[] for all sensors within the widget.
 652:Generated_Source\PSoC5/CapSense_CSD_CSHL.c **** *  If one of sensors within widget is active the function return that widget is 
 653:Generated_Source\PSoC5/CapSense_CSD_CSHL.c **** *  active.
 654:Generated_Source\PSoC5/CapSense_CSD_CSHL.c **** *  The touch pad and matrix buttons widgets need to have active sensor within 
 655:Generated_Source\PSoC5/CapSense_CSD_CSHL.c **** *  col and row to return widget active status.
 656:Generated_Source\PSoC5/CapSense_CSD_CSHL.c **** *
 657:Generated_Source\PSoC5/CapSense_CSD_CSHL.c **** * Parameters:
 658:Generated_Source\PSoC5/CapSense_CSD_CSHL.c **** *  widget:  widget number.
 659:Generated_Source\PSoC5/CapSense_CSD_CSHL.c **** *
 660:Generated_Source\PSoC5/CapSense_CSD_CSHL.c **** * Return:
 661:Generated_Source\PSoC5/CapSense_CSD_CSHL.c **** *  Returns widget sensor state 1 if one or more sensors within widget is/are 
 662:Generated_Source\PSoC5/CapSense_CSD_CSHL.c **** *  active, 0 if all sensors within widget are inactive.
 663:Generated_Source\PSoC5/CapSense_CSD_CSHL.c **** *
 664:Generated_Source\PSoC5/CapSense_CSD_CSHL.c **** * Reentrant:
 665:Generated_Source\PSoC5/CapSense_CSD_CSHL.c **** *  No
 666:Generated_Source\PSoC5/CapSense_CSD_CSHL.c **** *
 667:Generated_Source\PSoC5/CapSense_CSD_CSHL.c **** *******************************************************************************/
 668:Generated_Source\PSoC5/CapSense_CSD_CSHL.c **** uint8 CapSense_CSD_CheckIsWidgetActive(uint8 widget)
 669:Generated_Source\PSoC5/CapSense_CSD_CSHL.c ****                                  
ARM GAS  C:\Users\aryan\AppData\Local\Temp\ccEOeQjh.s 			page 23


 670:Generated_Source\PSoC5/CapSense_CSD_CSHL.c **** {
 579              		.loc 1 670 0
 580              		.cfi_startproc
 581              		@ args = 0, pretend = 0, frame = 0
 582              		@ frame_needed = 0, uses_anonymous_args = 0
 583              	.LVL73:
 584 0000 70B5     		push	{r4, r5, r6, lr}
 585              		.cfi_def_cfa_offset 16
 586              		.cfi_offset 4, -16
 587              		.cfi_offset 5, -12
 588              		.cfi_offset 6, -8
 589              		.cfi_offset 14, -4
 671:Generated_Source\PSoC5/CapSense_CSD_CSHL.c ****     uint8 rawIndex = CapSense_CSD_rawDataIndex[widget];
 590              		.loc 1 671 0
 591 0002 094B     		ldr	r3, .L55
 592 0004 1844     		add	r0, r0, r3
 593              	.LVL74:
 594 0006 047F     		ldrb	r4, [r0, #28]	@ zero_extendqisi2
 595              	.LVL75:
 672:Generated_Source\PSoC5/CapSense_CSD_CSHL.c ****     uint8 numberOfSensors = CapSense_CSD_numberOfSensors[widget] + rawIndex;
 596              		.loc 1 672 0
 597 0008 90F82050 		ldrb	r5, [r0, #32]	@ zero_extendqisi2
 598 000c 2544     		add	r5, r5, r4
 599 000e EDB2     		uxtb	r5, r5
 600              	.LVL76:
 673:Generated_Source\PSoC5/CapSense_CSD_CSHL.c ****     uint8 state = 0u;
 601              		.loc 1 673 0
 602 0010 0026     		movs	r6, #0
 603              	.LVL77:
 604              	.L52:
 674:Generated_Source\PSoC5/CapSense_CSD_CSHL.c **** 
 675:Generated_Source\PSoC5/CapSense_CSD_CSHL.c ****     /* Check all sensors of the widget */
 676:Generated_Source\PSoC5/CapSense_CSD_CSHL.c ****     do
 677:Generated_Source\PSoC5/CapSense_CSD_CSHL.c ****     {
 678:Generated_Source\PSoC5/CapSense_CSD_CSHL.c ****         if(CapSense_CSD_CheckIsSensorActive(rawIndex) != 0u)
 605              		.loc 1 678 0
 606 0012 2046     		mov	r0, r4
 607 0014 FFF7FEFF 		bl	CapSense_CSD_CheckIsSensorActive
 608              	.LVL78:
 609 0018 00B1     		cbz	r0, .L51
 679:Generated_Source\PSoC5/CapSense_CSD_CSHL.c ****         {
 680:Generated_Source\PSoC5/CapSense_CSD_CSHL.c ****             state = CapSense_CSD_SENSOR_1_IS_ACTIVE;
 610              		.loc 1 680 0
 611 001a 0126     		movs	r6, #1
 612              	.LVL79:
 613              	.L51:
 681:Generated_Source\PSoC5/CapSense_CSD_CSHL.c ****         }
 682:Generated_Source\PSoC5/CapSense_CSD_CSHL.c ****         rawIndex++;
 614              		.loc 1 682 0
 615 001c 0134     		adds	r4, r4, #1
 616              	.LVL80:
 617 001e E4B2     		uxtb	r4, r4
 618              	.LVL81:
 683:Generated_Source\PSoC5/CapSense_CSD_CSHL.c ****     }
 684:Generated_Source\PSoC5/CapSense_CSD_CSHL.c ****     while(rawIndex < numberOfSensors);
 619              		.loc 1 684 0
 620 0020 A542     		cmp	r5, r4
ARM GAS  C:\Users\aryan\AppData\Local\Temp\ccEOeQjh.s 			page 24


 621 0022 F6D8     		bhi	.L52
 685:Generated_Source\PSoC5/CapSense_CSD_CSHL.c ****     
 686:Generated_Source\PSoC5/CapSense_CSD_CSHL.c **** 
 687:Generated_Source\PSoC5/CapSense_CSD_CSHL.c ****     
 688:Generated_Source\PSoC5/CapSense_CSD_CSHL.c ****     return (state);
 689:Generated_Source\PSoC5/CapSense_CSD_CSHL.c **** }
 622              		.loc 1 689 0
 623 0024 3046     		mov	r0, r6
 624 0026 70BD     		pop	{r4, r5, r6, pc}
 625              	.LVL82:
 626              	.L56:
 627              		.align	2
 628              	.L55:
 629 0028 00000000 		.word	.LANCHOR0
 630              		.cfi_endproc
 631              	.LFE7:
 632              		.size	CapSense_CSD_CheckIsWidgetActive, .-CapSense_CSD_CheckIsWidgetActive
 633              		.section	.text.CapSense_CSD_CheckIsAnyWidgetActive,"ax",%progbits
 634              		.align	2
 635              		.global	CapSense_CSD_CheckIsAnyWidgetActive
 636              		.thumb
 637              		.thumb_func
 638              		.type	CapSense_CSD_CheckIsAnyWidgetActive, %function
 639              	CapSense_CSD_CheckIsAnyWidgetActive:
 640              	.LFB8:
 690:Generated_Source\PSoC5/CapSense_CSD_CSHL.c **** 
 691:Generated_Source\PSoC5/CapSense_CSD_CSHL.c **** 
 692:Generated_Source\PSoC5/CapSense_CSD_CSHL.c **** /*******************************************************************************
 693:Generated_Source\PSoC5/CapSense_CSD_CSHL.c **** * Function Name: CapSense_CSD_CheckIsAnyWidgetActive
 694:Generated_Source\PSoC5/CapSense_CSD_CSHL.c **** ********************************************************************************
 695:Generated_Source\PSoC5/CapSense_CSD_CSHL.c **** *
 696:Generated_Source\PSoC5/CapSense_CSD_CSHL.c **** * Summary:
 697:Generated_Source\PSoC5/CapSense_CSD_CSHL.c **** *  Compares all sensors of the CapSense_CSD_signal[] array to their finger 
 698:Generated_Source\PSoC5/CapSense_CSD_CSHL.c **** *  threshold. Calls CapSense_CSD_CheckIsWidgetActive() for each widget so 
 699:Generated_Source\PSoC5/CapSense_CSD_CSHL.c **** *  the CapSense_CSD_SensorOnMask[] array is up to date after calling this 
 700:Generated_Source\PSoC5/CapSense_CSD_CSHL.c **** *  function.
 701:Generated_Source\PSoC5/CapSense_CSD_CSHL.c **** *
 702:Generated_Source\PSoC5/CapSense_CSD_CSHL.c **** * Parameters:
 703:Generated_Source\PSoC5/CapSense_CSD_CSHL.c **** *  widget:  widget number.
 704:Generated_Source\PSoC5/CapSense_CSD_CSHL.c **** *
 705:Generated_Source\PSoC5/CapSense_CSD_CSHL.c **** * Return:
 706:Generated_Source\PSoC5/CapSense_CSD_CSHL.c **** *  Returns 1 if any widget is active, 0 none of widgets are active.
 707:Generated_Source\PSoC5/CapSense_CSD_CSHL.c **** *
 708:Generated_Source\PSoC5/CapSense_CSD_CSHL.c **** * Reentrant:
 709:Generated_Source\PSoC5/CapSense_CSD_CSHL.c **** *  No
 710:Generated_Source\PSoC5/CapSense_CSD_CSHL.c **** *
 711:Generated_Source\PSoC5/CapSense_CSD_CSHL.c **** *******************************************************************************/
 712:Generated_Source\PSoC5/CapSense_CSD_CSHL.c **** uint8 CapSense_CSD_CheckIsAnyWidgetActive(void)
 713:Generated_Source\PSoC5/CapSense_CSD_CSHL.c ****                                  
 714:Generated_Source\PSoC5/CapSense_CSD_CSHL.c **** {
 641              		.loc 1 714 0
 642              		.cfi_startproc
 643              		@ args = 0, pretend = 0, frame = 0
 644              		@ frame_needed = 0, uses_anonymous_args = 0
 645 0000 38B5     		push	{r3, r4, r5, lr}
 646              		.cfi_def_cfa_offset 16
 647              		.cfi_offset 3, -16
ARM GAS  C:\Users\aryan\AppData\Local\Temp\ccEOeQjh.s 			page 25


 648              		.cfi_offset 4, -12
 649              		.cfi_offset 5, -8
 650              		.cfi_offset 14, -4
 651              	.LVL83:
 715:Generated_Source\PSoC5/CapSense_CSD_CSHL.c ****     uint8 i;
 716:Generated_Source\PSoC5/CapSense_CSD_CSHL.c ****     uint8 state = 0u;
 652              		.loc 1 716 0
 653 0002 0025     		movs	r5, #0
 717:Generated_Source\PSoC5/CapSense_CSD_CSHL.c ****     
 718:Generated_Source\PSoC5/CapSense_CSD_CSHL.c ****     for(i = 0u; i < CapSense_CSD_TOTAL_WIDGET_COUNT; i++)
 654              		.loc 1 718 0
 655 0004 2C46     		mov	r4, r5
 656 0006 06E0     		b	.L58
 657              	.LVL84:
 658              	.L60:
 719:Generated_Source\PSoC5/CapSense_CSD_CSHL.c ****     {
 720:Generated_Source\PSoC5/CapSense_CSD_CSHL.c ****         if (CapSense_CSD_CheckIsWidgetActive(i) != 0u)
 659              		.loc 1 720 0
 660 0008 2046     		mov	r0, r4
 661 000a FFF7FEFF 		bl	CapSense_CSD_CheckIsWidgetActive
 662              	.LVL85:
 663 000e 00B1     		cbz	r0, .L59
 721:Generated_Source\PSoC5/CapSense_CSD_CSHL.c ****         {
 722:Generated_Source\PSoC5/CapSense_CSD_CSHL.c ****             state = CapSense_CSD_WIDGET_IS_ACTIVE;
 664              		.loc 1 722 0
 665 0010 0125     		movs	r5, #1
 666              	.LVL86:
 667              	.L59:
 718:Generated_Source\PSoC5/CapSense_CSD_CSHL.c ****     {
 668              		.loc 1 718 0 discriminator 2
 669 0012 0134     		adds	r4, r4, #1
 670              	.LVL87:
 671 0014 E4B2     		uxtb	r4, r4
 672              	.LVL88:
 673              	.L58:
 718:Generated_Source\PSoC5/CapSense_CSD_CSHL.c ****     {
 674              		.loc 1 718 0 is_stmt 0 discriminator 1
 675 0016 022C     		cmp	r4, #2
 676 0018 F6D9     		bls	.L60
 723:Generated_Source\PSoC5/CapSense_CSD_CSHL.c ****         }
 724:Generated_Source\PSoC5/CapSense_CSD_CSHL.c ****     }
 725:Generated_Source\PSoC5/CapSense_CSD_CSHL.c ****     
 726:Generated_Source\PSoC5/CapSense_CSD_CSHL.c **** 
 727:Generated_Source\PSoC5/CapSense_CSD_CSHL.c ****     return (state);
 728:Generated_Source\PSoC5/CapSense_CSD_CSHL.c **** }
 677              		.loc 1 728 0 is_stmt 1
 678 001a 2846     		mov	r0, r5
 679 001c 38BD     		pop	{r3, r4, r5, pc}
 680              		.cfi_endproc
 681              	.LFE8:
 682              		.size	CapSense_CSD_CheckIsAnyWidgetActive, .-CapSense_CSD_CheckIsAnyWidgetActive
 683 001e 00BF     		.section	.text.CapSense_CSD_EnableWidget,"ax",%progbits
 684              		.align	2
 685              		.global	CapSense_CSD_EnableWidget
 686              		.thumb
 687              		.thumb_func
 688              		.type	CapSense_CSD_EnableWidget, %function
ARM GAS  C:\Users\aryan\AppData\Local\Temp\ccEOeQjh.s 			page 26


 689              	CapSense_CSD_EnableWidget:
 690              	.LFB9:
 729:Generated_Source\PSoC5/CapSense_CSD_CSHL.c **** 
 730:Generated_Source\PSoC5/CapSense_CSD_CSHL.c **** 
 731:Generated_Source\PSoC5/CapSense_CSD_CSHL.c **** /*******************************************************************************
 732:Generated_Source\PSoC5/CapSense_CSD_CSHL.c **** * Function Name: CapSense_CSD_EnableWidget
 733:Generated_Source\PSoC5/CapSense_CSD_CSHL.c **** ********************************************************************************
 734:Generated_Source\PSoC5/CapSense_CSD_CSHL.c **** *
 735:Generated_Source\PSoC5/CapSense_CSD_CSHL.c **** * Summary:
 736:Generated_Source\PSoC5/CapSense_CSD_CSHL.c **** *  Enable all widget elements (sensors) to scanning process.
 737:Generated_Source\PSoC5/CapSense_CSD_CSHL.c **** *
 738:Generated_Source\PSoC5/CapSense_CSD_CSHL.c **** * Parameters:
 739:Generated_Source\PSoC5/CapSense_CSD_CSHL.c **** *  widget:  widget number.
 740:Generated_Source\PSoC5/CapSense_CSD_CSHL.c **** *
 741:Generated_Source\PSoC5/CapSense_CSD_CSHL.c **** * Return:
 742:Generated_Source\PSoC5/CapSense_CSD_CSHL.c **** *  None
 743:Generated_Source\PSoC5/CapSense_CSD_CSHL.c **** *
 744:Generated_Source\PSoC5/CapSense_CSD_CSHL.c **** * Global Variables:
 745:Generated_Source\PSoC5/CapSense_CSD_CSHL.c **** *  CapSense_CSD_sensorEnableMask[] - used to store the sensor scanning 
 746:Generated_Source\PSoC5/CapSense_CSD_CSHL.c **** *  state.
 747:Generated_Source\PSoC5/CapSense_CSD_CSHL.c **** *  CapSense_CSD_sensorEnableMask[0] contains the masked bits for sensors 
 748:Generated_Source\PSoC5/CapSense_CSD_CSHL.c **** *  0 through 7 (sensor 0 is bit 0, sensor 1 is bit 1).
 749:Generated_Source\PSoC5/CapSense_CSD_CSHL.c **** *  CapSense_CSD_sensorEnableMask[1] contains the masked bits for 
 750:Generated_Source\PSoC5/CapSense_CSD_CSHL.c **** *  sensors 8 through 15 (if needed), and so on.
 751:Generated_Source\PSoC5/CapSense_CSD_CSHL.c **** *  0 - sensor doesn't scan by CapSense_CSD_ScanEnabledWidgets().
 752:Generated_Source\PSoC5/CapSense_CSD_CSHL.c **** *  1 - sensor scans by CapSense_CSD_ScanEnabledWidgets().
 753:Generated_Source\PSoC5/CapSense_CSD_CSHL.c **** *
 754:Generated_Source\PSoC5/CapSense_CSD_CSHL.c **** * Reentrant:
 755:Generated_Source\PSoC5/CapSense_CSD_CSHL.c **** *  No
 756:Generated_Source\PSoC5/CapSense_CSD_CSHL.c **** *
 757:Generated_Source\PSoC5/CapSense_CSD_CSHL.c **** *******************************************************************************/
 758:Generated_Source\PSoC5/CapSense_CSD_CSHL.c **** void CapSense_CSD_EnableWidget(uint8 widget)
 759:Generated_Source\PSoC5/CapSense_CSD_CSHL.c ****                                    
 760:Generated_Source\PSoC5/CapSense_CSD_CSHL.c **** {
 691              		.loc 1 760 0
 692              		.cfi_startproc
 693              		@ args = 0, pretend = 0, frame = 0
 694              		@ frame_needed = 0, uses_anonymous_args = 0
 695              		@ link register save eliminated.
 696              	.LVL89:
 697 0000 30B4     		push	{r4, r5}
 698              		.cfi_def_cfa_offset 8
 699              		.cfi_offset 4, -8
 700              		.cfi_offset 5, -4
 761:Generated_Source\PSoC5/CapSense_CSD_CSHL.c ****     uint8 pos;
 762:Generated_Source\PSoC5/CapSense_CSD_CSHL.c ****     uint8 enMask;
 763:Generated_Source\PSoC5/CapSense_CSD_CSHL.c ****     uint8 rawIndex = CapSense_CSD_rawDataIndex[widget];
 701              		.loc 1 763 0
 702 0002 0B4B     		ldr	r3, .L66
 703 0004 1844     		add	r0, r0, r3
 704              	.LVL90:
 705 0006 037F     		ldrb	r3, [r0, #28]	@ zero_extendqisi2
 706              	.LVL91:
 764:Generated_Source\PSoC5/CapSense_CSD_CSHL.c ****     uint8 numberOfSensors = CapSense_CSD_numberOfSensors[widget] + rawIndex;
 707              		.loc 1 764 0
 708 0008 90F82050 		ldrb	r5, [r0, #32]	@ zero_extendqisi2
 709 000c 1D44     		add	r5, r5, r3
ARM GAS  C:\Users\aryan\AppData\Local\Temp\ccEOeQjh.s 			page 27


 710 000e EDB2     		uxtb	r5, r5
 711              	.LVL92:
 712              	.L64:
 765:Generated_Source\PSoC5/CapSense_CSD_CSHL.c ****     
 766:Generated_Source\PSoC5/CapSense_CSD_CSHL.c ****     /* Enable all sensors of the widget */
 767:Generated_Source\PSoC5/CapSense_CSD_CSHL.c ****     do
 768:Generated_Source\PSoC5/CapSense_CSD_CSHL.c ****     {
 769:Generated_Source\PSoC5/CapSense_CSD_CSHL.c ****         pos = (rawIndex >> 3u);
 713              		.loc 1 769 0 discriminator 1
 714 0010 D808     		lsrs	r0, r3, #3
 715              	.LVL93:
 770:Generated_Source\PSoC5/CapSense_CSD_CSHL.c ****         enMask = 0x01u << (rawIndex & 0x07u);
 716              		.loc 1 770 0 discriminator 1
 717 0012 03F00701 		and	r1, r3, #7
 718 0016 0122     		movs	r2, #1
 719 0018 8A40     		lsls	r2, r2, r1
 720 001a D2B2     		uxtb	r2, r2
 721              	.LVL94:
 771:Generated_Source\PSoC5/CapSense_CSD_CSHL.c ****         
 772:Generated_Source\PSoC5/CapSense_CSD_CSHL.c ****         CapSense_CSD_sensorEnableMask[pos] |= enMask;
 722              		.loc 1 772 0 discriminator 1
 723 001c 054C     		ldr	r4, .L66+4
 724 001e 215C     		ldrb	r1, [r4, r0]	@ zero_extendqisi2
 725 0020 0A43     		orrs	r2, r2, r1
 726              	.LVL95:
 727 0022 2254     		strb	r2, [r4, r0]
 773:Generated_Source\PSoC5/CapSense_CSD_CSHL.c ****         rawIndex++;
 728              		.loc 1 773 0 discriminator 1
 729 0024 0133     		adds	r3, r3, #1
 730              	.LVL96:
 731 0026 DBB2     		uxtb	r3, r3
 732              	.LVL97:
 774:Generated_Source\PSoC5/CapSense_CSD_CSHL.c ****     }
 775:Generated_Source\PSoC5/CapSense_CSD_CSHL.c ****     while(rawIndex < numberOfSensors);
 733              		.loc 1 775 0 discriminator 1
 734 0028 9D42     		cmp	r5, r3
 735 002a F1D8     		bhi	.L64
 776:Generated_Source\PSoC5/CapSense_CSD_CSHL.c ****     
 777:Generated_Source\PSoC5/CapSense_CSD_CSHL.c **** 
 778:Generated_Source\PSoC5/CapSense_CSD_CSHL.c **** }
 736              		.loc 1 778 0
 737 002c 30BC     		pop	{r4, r5}
 738              		.cfi_restore 5
 739              		.cfi_restore 4
 740              		.cfi_def_cfa_offset 0
 741              	.LVL98:
 742 002e 7047     		bx	lr
 743              	.L67:
 744              		.align	2
 745              	.L66:
 746 0030 00000000 		.word	.LANCHOR0
 747 0034 00000000 		.word	CapSense_CSD_sensorEnableMask
 748              		.cfi_endproc
 749              	.LFE9:
 750              		.size	CapSense_CSD_EnableWidget, .-CapSense_CSD_EnableWidget
 751              		.section	.text.CapSense_CSD_DisableWidget,"ax",%progbits
 752              		.align	2
ARM GAS  C:\Users\aryan\AppData\Local\Temp\ccEOeQjh.s 			page 28


 753              		.global	CapSense_CSD_DisableWidget
 754              		.thumb
 755              		.thumb_func
 756              		.type	CapSense_CSD_DisableWidget, %function
 757              	CapSense_CSD_DisableWidget:
 758              	.LFB10:
 779:Generated_Source\PSoC5/CapSense_CSD_CSHL.c **** 
 780:Generated_Source\PSoC5/CapSense_CSD_CSHL.c **** 
 781:Generated_Source\PSoC5/CapSense_CSD_CSHL.c **** /*******************************************************************************
 782:Generated_Source\PSoC5/CapSense_CSD_CSHL.c **** * Function Name: CapSense_CSD_DisableWidget
 783:Generated_Source\PSoC5/CapSense_CSD_CSHL.c **** ********************************************************************************
 784:Generated_Source\PSoC5/CapSense_CSD_CSHL.c **** *
 785:Generated_Source\PSoC5/CapSense_CSD_CSHL.c **** * Summary:
 786:Generated_Source\PSoC5/CapSense_CSD_CSHL.c **** *  Disable all widget elements (sensors) from scanning process.
 787:Generated_Source\PSoC5/CapSense_CSD_CSHL.c **** *
 788:Generated_Source\PSoC5/CapSense_CSD_CSHL.c **** * Parameters:
 789:Generated_Source\PSoC5/CapSense_CSD_CSHL.c **** *  widget:  widget number.
 790:Generated_Source\PSoC5/CapSense_CSD_CSHL.c **** *
 791:Generated_Source\PSoC5/CapSense_CSD_CSHL.c **** * Return:
 792:Generated_Source\PSoC5/CapSense_CSD_CSHL.c **** *  None
 793:Generated_Source\PSoC5/CapSense_CSD_CSHL.c **** *
 794:Generated_Source\PSoC5/CapSense_CSD_CSHL.c **** * Global Variables:
 795:Generated_Source\PSoC5/CapSense_CSD_CSHL.c **** *  CapSense_CSD_sensorEnableMask[] - used to store the sensor scanning 
 796:Generated_Source\PSoC5/CapSense_CSD_CSHL.c **** *  state.
 797:Generated_Source\PSoC5/CapSense_CSD_CSHL.c **** *  CapSense_CSD_sensorEnableMask[0] contains the masked bits for sensors 
 798:Generated_Source\PSoC5/CapSense_CSD_CSHL.c **** *  0 through 7 (sensor 0 is bit 0, sensor 1 is bit 1).
 799:Generated_Source\PSoC5/CapSense_CSD_CSHL.c **** *  CapSense_CSD_sensorEnableMask[1] contains the masked bits for 
 800:Generated_Source\PSoC5/CapSense_CSD_CSHL.c **** *  sensors 8 through 15 (if needed), and so on.
 801:Generated_Source\PSoC5/CapSense_CSD_CSHL.c **** *  0 - sensor doesn't scan by CapSense_CSD_ScanEnabledWidgets().
 802:Generated_Source\PSoC5/CapSense_CSD_CSHL.c **** *  1 - sensor scans by CapSense_CSD_ScanEnabledWidgets().
 803:Generated_Source\PSoC5/CapSense_CSD_CSHL.c **** *
 804:Generated_Source\PSoC5/CapSense_CSD_CSHL.c **** * Reentrant:
 805:Generated_Source\PSoC5/CapSense_CSD_CSHL.c **** *  No
 806:Generated_Source\PSoC5/CapSense_CSD_CSHL.c **** *
 807:Generated_Source\PSoC5/CapSense_CSD_CSHL.c **** *******************************************************************************/
 808:Generated_Source\PSoC5/CapSense_CSD_CSHL.c **** void CapSense_CSD_DisableWidget(uint8 widget)
 809:Generated_Source\PSoC5/CapSense_CSD_CSHL.c ****                                     
 810:Generated_Source\PSoC5/CapSense_CSD_CSHL.c **** {
 759              		.loc 1 810 0
 760              		.cfi_startproc
 761              		@ args = 0, pretend = 0, frame = 0
 762              		@ frame_needed = 0, uses_anonymous_args = 0
 763              		@ link register save eliminated.
 764              	.LVL99:
 765 0000 30B4     		push	{r4, r5}
 766              		.cfi_def_cfa_offset 8
 767              		.cfi_offset 4, -8
 768              		.cfi_offset 5, -4
 811:Generated_Source\PSoC5/CapSense_CSD_CSHL.c ****     uint8 pos;
 812:Generated_Source\PSoC5/CapSense_CSD_CSHL.c ****     uint8 enMask;
 813:Generated_Source\PSoC5/CapSense_CSD_CSHL.c ****     uint8 rawIndex = CapSense_CSD_rawDataIndex[widget];
 769              		.loc 1 813 0
 770 0002 0C4B     		ldr	r3, .L71
 771 0004 1844     		add	r0, r0, r3
 772              	.LVL100:
 773 0006 037F     		ldrb	r3, [r0, #28]	@ zero_extendqisi2
 774              	.LVL101:
ARM GAS  C:\Users\aryan\AppData\Local\Temp\ccEOeQjh.s 			page 29


 814:Generated_Source\PSoC5/CapSense_CSD_CSHL.c ****     uint8 numberOfSensors = CapSense_CSD_numberOfSensors[widget] + rawIndex;
 775              		.loc 1 814 0
 776 0008 90F82050 		ldrb	r5, [r0, #32]	@ zero_extendqisi2
 777 000c 1D44     		add	r5, r5, r3
 778 000e EDB2     		uxtb	r5, r5
 779              	.LVL102:
 780              	.L69:
 815:Generated_Source\PSoC5/CapSense_CSD_CSHL.c ****    
 816:Generated_Source\PSoC5/CapSense_CSD_CSHL.c ****     /* Disable all sensors of the widget */
 817:Generated_Source\PSoC5/CapSense_CSD_CSHL.c ****     do
 818:Generated_Source\PSoC5/CapSense_CSD_CSHL.c ****     {
 819:Generated_Source\PSoC5/CapSense_CSD_CSHL.c ****         pos = (rawIndex >> 3u);
 781              		.loc 1 819 0 discriminator 1
 782 0010 D808     		lsrs	r0, r3, #3
 783              	.LVL103:
 820:Generated_Source\PSoC5/CapSense_CSD_CSHL.c ****         enMask = 0x01u << (rawIndex & 0x07u);
 784              		.loc 1 820 0 discriminator 1
 785 0012 03F00701 		and	r1, r3, #7
 786 0016 0122     		movs	r2, #1
 787 0018 8A40     		lsls	r2, r2, r1
 788 001a D2B2     		uxtb	r2, r2
 789              	.LVL104:
 821:Generated_Source\PSoC5/CapSense_CSD_CSHL.c ****         
 822:Generated_Source\PSoC5/CapSense_CSD_CSHL.c ****         CapSense_CSD_sensorEnableMask[pos] &= (uint8)~enMask;
 790              		.loc 1 822 0 discriminator 1
 791 001c 064C     		ldr	r4, .L71+4
 792 001e 215C     		ldrb	r1, [r4, r0]	@ zero_extendqisi2
 793 0020 21EA0202 		bic	r2, r1, r2
 794              	.LVL105:
 795 0024 2254     		strb	r2, [r4, r0]
 823:Generated_Source\PSoC5/CapSense_CSD_CSHL.c ****         rawIndex++;
 796              		.loc 1 823 0 discriminator 1
 797 0026 0133     		adds	r3, r3, #1
 798              	.LVL106:
 799 0028 DBB2     		uxtb	r3, r3
 800              	.LVL107:
 824:Generated_Source\PSoC5/CapSense_CSD_CSHL.c ****     }
 825:Generated_Source\PSoC5/CapSense_CSD_CSHL.c ****     while(rawIndex < numberOfSensors);
 801              		.loc 1 825 0 discriminator 1
 802 002a 9D42     		cmp	r5, r3
 803 002c F0D8     		bhi	.L69
 826:Generated_Source\PSoC5/CapSense_CSD_CSHL.c ****     
 827:Generated_Source\PSoC5/CapSense_CSD_CSHL.c **** 
 828:Generated_Source\PSoC5/CapSense_CSD_CSHL.c **** }
 804              		.loc 1 828 0
 805 002e 30BC     		pop	{r4, r5}
 806              		.cfi_restore 5
 807              		.cfi_restore 4
 808              		.cfi_def_cfa_offset 0
 809              	.LVL108:
 810 0030 7047     		bx	lr
 811              	.L72:
 812 0032 00BF     		.align	2
 813              	.L71:
 814 0034 00000000 		.word	.LANCHOR0
 815 0038 00000000 		.word	CapSense_CSD_sensorEnableMask
 816              		.cfi_endproc
ARM GAS  C:\Users\aryan\AppData\Local\Temp\ccEOeQjh.s 			page 30


 817              	.LFE10:
 818              		.size	CapSense_CSD_DisableWidget, .-CapSense_CSD_DisableWidget
 819              		.section	.text.CapSense_CSD_FindMaximum,"ax",%progbits
 820              		.align	2
 821              		.global	CapSense_CSD_FindMaximum
 822              		.thumb
 823              		.thumb_func
 824              		.type	CapSense_CSD_FindMaximum, %function
 825              	CapSense_CSD_FindMaximum:
 826              	.LFB11:
 829:Generated_Source\PSoC5/CapSense_CSD_CSHL.c **** #if(CapSense_CSD_TOTAL_CENTROIDS_COUNT)
 830:Generated_Source\PSoC5/CapSense_CSD_CSHL.c ****     /*******************************************************************************
 831:Generated_Source\PSoC5/CapSense_CSD_CSHL.c ****     * Function Name: CapSense_CSD_FindMaximum
 832:Generated_Source\PSoC5/CapSense_CSD_CSHL.c ****     ********************************************************************************
 833:Generated_Source\PSoC5/CapSense_CSD_CSHL.c ****     *
 834:Generated_Source\PSoC5/CapSense_CSD_CSHL.c ****     * Summary:
 835:Generated_Source\PSoC5/CapSense_CSD_CSHL.c ****     *  Finds index of maximum element within defined centroid. Checks 
 836:Generated_Source\PSoC5/CapSense_CSD_CSHL.c ****     *  CapSense_CSD_SensorSignal[] within defined cenrtoid and 
 837:Generated_Source\PSoC5/CapSense_CSD_CSHL.c ****     *  returns index of maximum element. The values below finger threshold are 
 838:Generated_Source\PSoC5/CapSense_CSD_CSHL.c ****     *  ignored.
 839:Generated_Source\PSoC5/CapSense_CSD_CSHL.c ****     *  The centrod defines by offset of first element and number of elements - count.
 840:Generated_Source\PSoC5/CapSense_CSD_CSHL.c ****     *  The diplexed centroid requires at least consecutive two elements above
 841:Generated_Source\PSoC5/CapSense_CSD_CSHL.c ****     *  FingerThreshold to find index of maximum element.
 842:Generated_Source\PSoC5/CapSense_CSD_CSHL.c ****     * 
 843:Generated_Source\PSoC5/CapSense_CSD_CSHL.c ****     * Parameters:
 844:Generated_Source\PSoC5/CapSense_CSD_CSHL.c ****     *  offset:  Start index of cetroid in CapSense_CSD_sensorSignal[] array.
 845:Generated_Source\PSoC5/CapSense_CSD_CSHL.c ****     *  count:   number of elements within centroid.
 846:Generated_Source\PSoC5/CapSense_CSD_CSHL.c ****     *  fingerThreshold:  Finger threshould.
 847:Generated_Source\PSoC5/CapSense_CSD_CSHL.c ****     *  diplex:   pointer to diplex table.
 848:Generated_Source\PSoC5/CapSense_CSD_CSHL.c ****     * 
 849:Generated_Source\PSoC5/CapSense_CSD_CSHL.c ****     * Return:
 850:Generated_Source\PSoC5/CapSense_CSD_CSHL.c ****     *  Returns index of maximum element within defined centroid.
 851:Generated_Source\PSoC5/CapSense_CSD_CSHL.c ****     *  If index of maximum element doesn't find the 0xFF returns.
 852:Generated_Source\PSoC5/CapSense_CSD_CSHL.c ****     * 
 853:Generated_Source\PSoC5/CapSense_CSD_CSHL.c ****     *******************************************************************************/
 854:Generated_Source\PSoC5/CapSense_CSD_CSHL.c ****     #if (CapSense_CSD_IS_DIPLEX_SLIDER)
 855:Generated_Source\PSoC5/CapSense_CSD_CSHL.c ****         uint8 CapSense_CSD_FindMaximum(uint8 offset, uint8 count, uint16 fingerThreshold, const uin
 856:Generated_Source\PSoC5/CapSense_CSD_CSHL.c **** 	                                       
 857:Generated_Source\PSoC5/CapSense_CSD_CSHL.c ****     #else 
 858:Generated_Source\PSoC5/CapSense_CSD_CSHL.c ****         uint8 CapSense_CSD_FindMaximum(uint8 offset, uint8 count, uint16 fingerThreshold)
 859:Generated_Source\PSoC5/CapSense_CSD_CSHL.c **** 	                                       
 860:Generated_Source\PSoC5/CapSense_CSD_CSHL.c ****     #endif /* (CapSense_CSD_IS_DIPLEX_SLIDER) */
 861:Generated_Source\PSoC5/CapSense_CSD_CSHL.c ****     {
 827              		.loc 1 861 0
 828              		.cfi_startproc
 829              		@ args = 0, pretend = 0, frame = 0
 830              		@ frame_needed = 0, uses_anonymous_args = 0
 831              		@ link register save eliminated.
 832              	.LVL109:
 833 0000 70B4     		push	{r4, r5, r6}
 834              		.cfi_def_cfa_offset 12
 835              		.cfi_offset 4, -12
 836              		.cfi_offset 5, -8
 837              		.cfi_offset 6, -4
 838              	.LVL110:
 862:Generated_Source\PSoC5/CapSense_CSD_CSHL.c ****         uint8 i;
 863:Generated_Source\PSoC5/CapSense_CSD_CSHL.c ****         #if (CapSense_CSD_IS_DIPLEX_SLIDER)        
ARM GAS  C:\Users\aryan\AppData\Local\Temp\ccEOeQjh.s 			page 31


 864:Generated_Source\PSoC5/CapSense_CSD_CSHL.c ****             uint8 curPos = 0u;
 865:Generated_Source\PSoC5/CapSense_CSD_CSHL.c ****             /* No centroid at the Start */
 866:Generated_Source\PSoC5/CapSense_CSD_CSHL.c ****             uint8 curCntrdSize = 0u;
 867:Generated_Source\PSoC5/CapSense_CSD_CSHL.c ****             uint8 curCtrdStartPos = 0xFFu;
 868:Generated_Source\PSoC5/CapSense_CSD_CSHL.c ****             /* The biggset centroid is zero */
 869:Generated_Source\PSoC5/CapSense_CSD_CSHL.c ****             uint8 biggestCtrdSize = 0u;
 870:Generated_Source\PSoC5/CapSense_CSD_CSHL.c ****             uint8 biggestCtrdStartPos = 0u;
 871:Generated_Source\PSoC5/CapSense_CSD_CSHL.c ****         #endif /* (CapSense_CSD_IS_DIPLEX_SLIDER) */
 872:Generated_Source\PSoC5/CapSense_CSD_CSHL.c ****         uint8 maximum = 0xFFu;
 873:Generated_Source\PSoC5/CapSense_CSD_CSHL.c ****         uint16 temp = 0u;
 874:Generated_Source\PSoC5/CapSense_CSD_CSHL.c ****         uint16 *startOfSlider = &CapSense_CSD_sensorSignal[offset]; 
 839              		.loc 1 874 0
 840 0002 0A4D     		ldr	r5, .L79
 841 0004 05EB4005 		add	r5, r5, r0, lsl #1
 842              	.LVL111:
 873:Generated_Source\PSoC5/CapSense_CSD_CSHL.c ****         uint16 *startOfSlider = &CapSense_CSD_sensorSignal[offset]; 
 843              		.loc 1 873 0
 844 0008 0026     		movs	r6, #0
 872:Generated_Source\PSoC5/CapSense_CSD_CSHL.c ****         uint16 temp = 0u;
 845              		.loc 1 872 0
 846 000a FF20     		movs	r0, #255
 847              	.LVL112:
 875:Generated_Source\PSoC5/CapSense_CSD_CSHL.c **** 
 876:Generated_Source\PSoC5/CapSense_CSD_CSHL.c ****         #if (CapSense_CSD_IS_DIPLEX_SLIDER)        
 877:Generated_Source\PSoC5/CapSense_CSD_CSHL.c ****             if(diplex != 0u)
 878:Generated_Source\PSoC5/CapSense_CSD_CSHL.c ****             {
 879:Generated_Source\PSoC5/CapSense_CSD_CSHL.c ****                 /* Initialize */
 880:Generated_Source\PSoC5/CapSense_CSD_CSHL.c ****                 i = 0u;
 881:Generated_Source\PSoC5/CapSense_CSD_CSHL.c ****                 
 882:Generated_Source\PSoC5/CapSense_CSD_CSHL.c ****                 /* Make slider x2 as Diplexed */
 883:Generated_Source\PSoC5/CapSense_CSD_CSHL.c ****                 count <<= 1u;
 884:Generated_Source\PSoC5/CapSense_CSD_CSHL.c ****                 while(1u)
 885:Generated_Source\PSoC5/CapSense_CSD_CSHL.c ****                 { 
 886:Generated_Source\PSoC5/CapSense_CSD_CSHL.c ****                     if (startOfSlider[curPos] > 0u)    /* Looking for centroids */
 887:Generated_Source\PSoC5/CapSense_CSD_CSHL.c ****                     {
 888:Generated_Source\PSoC5/CapSense_CSD_CSHL.c ****                         if (curCtrdStartPos == 0xFFu)
 889:Generated_Source\PSoC5/CapSense_CSD_CSHL.c ****                         {
 890:Generated_Source\PSoC5/CapSense_CSD_CSHL.c ****                             /* Start of centroid */
 891:Generated_Source\PSoC5/CapSense_CSD_CSHL.c ****                             curCtrdStartPos = i;
 892:Generated_Source\PSoC5/CapSense_CSD_CSHL.c ****                             curCntrdSize++;
 893:Generated_Source\PSoC5/CapSense_CSD_CSHL.c ****                         }
 894:Generated_Source\PSoC5/CapSense_CSD_CSHL.c ****                         else
 895:Generated_Source\PSoC5/CapSense_CSD_CSHL.c ****                         {
 896:Generated_Source\PSoC5/CapSense_CSD_CSHL.c ****                             curCntrdSize++;
 897:Generated_Source\PSoC5/CapSense_CSD_CSHL.c ****                         }
 898:Generated_Source\PSoC5/CapSense_CSD_CSHL.c ****                     }
 899:Generated_Source\PSoC5/CapSense_CSD_CSHL.c ****                     else   /* Select the bigest and indicate zero start */
 900:Generated_Source\PSoC5/CapSense_CSD_CSHL.c ****                     {          
 901:Generated_Source\PSoC5/CapSense_CSD_CSHL.c ****                         if(curCntrdSize > 0u)
 902:Generated_Source\PSoC5/CapSense_CSD_CSHL.c ****                         {
 903:Generated_Source\PSoC5/CapSense_CSD_CSHL.c ****                             /* We are in the end of current */
 904:Generated_Source\PSoC5/CapSense_CSD_CSHL.c ****                             if(curCntrdSize > biggestCtrdSize)
 905:Generated_Source\PSoC5/CapSense_CSD_CSHL.c ****                             {
 906:Generated_Source\PSoC5/CapSense_CSD_CSHL.c ****                                 biggestCtrdSize = curCntrdSize;
 907:Generated_Source\PSoC5/CapSense_CSD_CSHL.c ****                                 biggestCtrdStartPos = curCtrdStartPos;
 908:Generated_Source\PSoC5/CapSense_CSD_CSHL.c ****                             }
 909:Generated_Source\PSoC5/CapSense_CSD_CSHL.c ****                             
ARM GAS  C:\Users\aryan\AppData\Local\Temp\ccEOeQjh.s 			page 32


 910:Generated_Source\PSoC5/CapSense_CSD_CSHL.c ****                             curCntrdSize = 0u;
 911:Generated_Source\PSoC5/CapSense_CSD_CSHL.c ****                             curCtrdStartPos = 0xFFu;
 912:Generated_Source\PSoC5/CapSense_CSD_CSHL.c ****                         }
 913:Generated_Source\PSoC5/CapSense_CSD_CSHL.c ****                     }
 914:Generated_Source\PSoC5/CapSense_CSD_CSHL.c ****                     
 915:Generated_Source\PSoC5/CapSense_CSD_CSHL.c ****                     i++; 
 916:Generated_Source\PSoC5/CapSense_CSD_CSHL.c ****                     curPos = diplex[i];
 917:Generated_Source\PSoC5/CapSense_CSD_CSHL.c ****                     if(i == count)
 918:Generated_Source\PSoC5/CapSense_CSD_CSHL.c ****                     {
 919:Generated_Source\PSoC5/CapSense_CSD_CSHL.c ****                         break;
 920:Generated_Source\PSoC5/CapSense_CSD_CSHL.c ****                     }            
 921:Generated_Source\PSoC5/CapSense_CSD_CSHL.c ****                 }
 922:Generated_Source\PSoC5/CapSense_CSD_CSHL.c ****                     
 923:Generated_Source\PSoC5/CapSense_CSD_CSHL.c ****                     /* Find the biggest centroid if two are the same size, last one wins
 924:Generated_Source\PSoC5/CapSense_CSD_CSHL.c ****                        We are in the end of current */
 925:Generated_Source\PSoC5/CapSense_CSD_CSHL.c ****                 if (curCntrdSize >= biggestCtrdSize) 
 926:Generated_Source\PSoC5/CapSense_CSD_CSHL.c ****                 {
 927:Generated_Source\PSoC5/CapSense_CSD_CSHL.c ****                     biggestCtrdSize = curCntrdSize;
 928:Generated_Source\PSoC5/CapSense_CSD_CSHL.c ****                     biggestCtrdStartPos = curCtrdStartPos;
 929:Generated_Source\PSoC5/CapSense_CSD_CSHL.c ****                 }
 930:Generated_Source\PSoC5/CapSense_CSD_CSHL.c ****             }
 931:Generated_Source\PSoC5/CapSense_CSD_CSHL.c ****             else
 932:Generated_Source\PSoC5/CapSense_CSD_CSHL.c ****             {
 933:Generated_Source\PSoC5/CapSense_CSD_CSHL.c ****                 /* Without diplexing */ 
 934:Generated_Source\PSoC5/CapSense_CSD_CSHL.c ****                 biggestCtrdSize = count;
 935:Generated_Source\PSoC5/CapSense_CSD_CSHL.c ****             }
 936:Generated_Source\PSoC5/CapSense_CSD_CSHL.c ****                         
 937:Generated_Source\PSoC5/CapSense_CSD_CSHL.c **** 
 938:Generated_Source\PSoC5/CapSense_CSD_CSHL.c ****             /* Check centroid size */
 939:Generated_Source\PSoC5/CapSense_CSD_CSHL.c ****             #if (CapSense_CSD_IS_NON_DIPLEX_SLIDER)
 940:Generated_Source\PSoC5/CapSense_CSD_CSHL.c ****                 if((biggestCtrdSize >= 2u) || ((biggestCtrdSize == 1u) && (diplex == 0u)))
 941:Generated_Source\PSoC5/CapSense_CSD_CSHL.c ****             #else                    
 942:Generated_Source\PSoC5/CapSense_CSD_CSHL.c ****                 if(biggestCtrdSize >= 2u)
 943:Generated_Source\PSoC5/CapSense_CSD_CSHL.c ****             #endif /* (CapSense_CSD_IS_NON_DIPLEX_SLIDER) */
 944:Generated_Source\PSoC5/CapSense_CSD_CSHL.c ****                 {
 945:Generated_Source\PSoC5/CapSense_CSD_CSHL.c ****                     for (i = biggestCtrdStartPos; i < (biggestCtrdStartPos + biggestCtrdSize); i++)
 946:Generated_Source\PSoC5/CapSense_CSD_CSHL.c ****                     {
 947:Generated_Source\PSoC5/CapSense_CSD_CSHL.c ****                         #if (CapSense_CSD_IS_DIPLEX_SLIDER && CapSense_CSD_IS_NON_DIPLEX_SLIDER)
 948:Generated_Source\PSoC5/CapSense_CSD_CSHL.c ****                             if (diplex == 0u)
 949:Generated_Source\PSoC5/CapSense_CSD_CSHL.c ****                             {
 950:Generated_Source\PSoC5/CapSense_CSD_CSHL.c ****                                 curPos = i;
 951:Generated_Source\PSoC5/CapSense_CSD_CSHL.c ****                             }
 952:Generated_Source\PSoC5/CapSense_CSD_CSHL.c ****                             else
 953:Generated_Source\PSoC5/CapSense_CSD_CSHL.c ****                             {
 954:Generated_Source\PSoC5/CapSense_CSD_CSHL.c ****                                 curPos = diplex[i];
 955:Generated_Source\PSoC5/CapSense_CSD_CSHL.c ****                             }                    
 956:Generated_Source\PSoC5/CapSense_CSD_CSHL.c ****                         #elif (CapSense_CSD_IS_DIPLEX_SLIDER)                    
 957:Generated_Source\PSoC5/CapSense_CSD_CSHL.c ****                             curPos = diplex[i];                    
 958:Generated_Source\PSoC5/CapSense_CSD_CSHL.c ****                         #endif /* (CapSense_CSD_IS_DIPLEX_SLIDER && CapSense_CSD_IS_NON_DIPLEX_SLID
 959:Generated_Source\PSoC5/CapSense_CSD_CSHL.c ****                         /* Looking for the grater element within centroid */
 960:Generated_Source\PSoC5/CapSense_CSD_CSHL.c ****                         if(startOfSlider[curPos] > fingerThreshold)
 961:Generated_Source\PSoC5/CapSense_CSD_CSHL.c ****                         {
 962:Generated_Source\PSoC5/CapSense_CSD_CSHL.c ****                             if(startOfSlider[curPos] > temp)
 963:Generated_Source\PSoC5/CapSense_CSD_CSHL.c ****                             {
 964:Generated_Source\PSoC5/CapSense_CSD_CSHL.c ****                                 maximum = i;
 965:Generated_Source\PSoC5/CapSense_CSD_CSHL.c ****                                 temp = startOfSlider[curPos];
 966:Generated_Source\PSoC5/CapSense_CSD_CSHL.c ****                             }
ARM GAS  C:\Users\aryan\AppData\Local\Temp\ccEOeQjh.s 			page 33


 967:Generated_Source\PSoC5/CapSense_CSD_CSHL.c ****                         }
 968:Generated_Source\PSoC5/CapSense_CSD_CSHL.c ****                     }
 969:Generated_Source\PSoC5/CapSense_CSD_CSHL.c ****                 } 
 970:Generated_Source\PSoC5/CapSense_CSD_CSHL.c ****         #else
 971:Generated_Source\PSoC5/CapSense_CSD_CSHL.c ****             for (i = 0u; i < count; i++)
 848              		.loc 1 971 0
 849 000c 3346     		mov	r3, r6
 850 000e 09E0     		b	.L74
 851              	.LVL113:
 852              	.L76:
 972:Generated_Source\PSoC5/CapSense_CSD_CSHL.c ****             {                      
 973:Generated_Source\PSoC5/CapSense_CSD_CSHL.c ****                 /* Looking for the grater element within centroid */
 974:Generated_Source\PSoC5/CapSense_CSD_CSHL.c ****                 if(startOfSlider[i] > fingerThreshold)
 853              		.loc 1 974 0
 854 0010 35F81340 		ldrh	r4, [r5, r3, lsl #1]
 855 0014 9442     		cmp	r4, r2
 856 0016 03D9     		bls	.L75
 975:Generated_Source\PSoC5/CapSense_CSD_CSHL.c ****                 {
 976:Generated_Source\PSoC5/CapSense_CSD_CSHL.c ****                     if(startOfSlider[i] > temp)
 857              		.loc 1 976 0
 858 0018 A642     		cmp	r6, r4
 859 001a 01D2     		bcs	.L75
 977:Generated_Source\PSoC5/CapSense_CSD_CSHL.c ****                     {
 978:Generated_Source\PSoC5/CapSense_CSD_CSHL.c ****                         maximum = i;
 979:Generated_Source\PSoC5/CapSense_CSD_CSHL.c ****                         temp = startOfSlider[i];
 860              		.loc 1 979 0
 861 001c 2646     		mov	r6, r4
 862              	.LVL114:
 978:Generated_Source\PSoC5/CapSense_CSD_CSHL.c ****                         temp = startOfSlider[i];
 863              		.loc 1 978 0
 864 001e 1846     		mov	r0, r3
 865              	.LVL115:
 866              	.L75:
 971:Generated_Source\PSoC5/CapSense_CSD_CSHL.c ****             {                      
 867              		.loc 1 971 0 discriminator 2
 868 0020 0133     		adds	r3, r3, #1
 869              	.LVL116:
 870 0022 DBB2     		uxtb	r3, r3
 871              	.LVL117:
 872              	.L74:
 971:Generated_Source\PSoC5/CapSense_CSD_CSHL.c ****             {                      
 873              		.loc 1 971 0 is_stmt 0 discriminator 1
 874 0024 8B42     		cmp	r3, r1
 875 0026 F3D3     		bcc	.L76
 980:Generated_Source\PSoC5/CapSense_CSD_CSHL.c ****                     }
 981:Generated_Source\PSoC5/CapSense_CSD_CSHL.c ****                 }
 982:Generated_Source\PSoC5/CapSense_CSD_CSHL.c ****             }    
 983:Generated_Source\PSoC5/CapSense_CSD_CSHL.c ****         #endif /* (CapSense_CSD_IS_DIPLEX_SLIDER) */
 984:Generated_Source\PSoC5/CapSense_CSD_CSHL.c ****         return (maximum);
 985:Generated_Source\PSoC5/CapSense_CSD_CSHL.c ****     }
 876              		.loc 1 985 0 is_stmt 1
 877 0028 70BC     		pop	{r4, r5, r6}
 878              		.cfi_restore 6
 879              		.cfi_restore 5
 880              		.cfi_restore 4
 881              		.cfi_def_cfa_offset 0
 882              	.LVL118:
ARM GAS  C:\Users\aryan\AppData\Local\Temp\ccEOeQjh.s 			page 34


 883 002a 7047     		bx	lr
 884              	.L80:
 885              		.align	2
 886              	.L79:
 887 002c 00000000 		.word	CapSense_CSD_sensorSignal
 888              		.cfi_endproc
 889              	.LFE11:
 890              		.size	CapSense_CSD_FindMaximum, .-CapSense_CSD_FindMaximum
 891              		.section	.text.CapSense_CSD_CalcCentroid,"ax",%progbits
 892              		.align	2
 893              		.global	CapSense_CSD_CalcCentroid
 894              		.thumb
 895              		.thumb_func
 896              		.type	CapSense_CSD_CalcCentroid, %function
 897              	CapSense_CSD_CalcCentroid:
 898              	.LFB12:
 986:Generated_Source\PSoC5/CapSense_CSD_CSHL.c ****     
 987:Generated_Source\PSoC5/CapSense_CSD_CSHL.c ****     
 988:Generated_Source\PSoC5/CapSense_CSD_CSHL.c ****     /*******************************************************************************
 989:Generated_Source\PSoC5/CapSense_CSD_CSHL.c ****     * Function Name: CapSense_CSD_CalcCentroid
 990:Generated_Source\PSoC5/CapSense_CSD_CSHL.c ****     ********************************************************************************
 991:Generated_Source\PSoC5/CapSense_CSD_CSHL.c ****     *
 992:Generated_Source\PSoC5/CapSense_CSD_CSHL.c ****     * Summary:
 993:Generated_Source\PSoC5/CapSense_CSD_CSHL.c ****     *  Returns position value calculated accoring index of maximum element and API
 994:Generated_Source\PSoC5/CapSense_CSD_CSHL.c ****     *  resolution.
 995:Generated_Source\PSoC5/CapSense_CSD_CSHL.c ****     *
 996:Generated_Source\PSoC5/CapSense_CSD_CSHL.c ****     * Parameters:
 997:Generated_Source\PSoC5/CapSense_CSD_CSHL.c ****     *  type:  widget type.
 998:Generated_Source\PSoC5/CapSense_CSD_CSHL.c ****     *  diplex:  pointer to diplex table.
 999:Generated_Source\PSoC5/CapSense_CSD_CSHL.c ****     *  maximum:  Index of maximum element within centroid.
1000:Generated_Source\PSoC5/CapSense_CSD_CSHL.c ****     *  offset:   Start index of cetroid in CapSense_CSD_SensorSignal[] array.
1001:Generated_Source\PSoC5/CapSense_CSD_CSHL.c ****     *  count:    Number of elements within centroid.
1002:Generated_Source\PSoC5/CapSense_CSD_CSHL.c ****     *  resolution:  multiplicator calculated according to centroid type and
1003:Generated_Source\PSoC5/CapSense_CSD_CSHL.c ****     *  API resolution.
1004:Generated_Source\PSoC5/CapSense_CSD_CSHL.c ****     *  noiseThreshold:  Noise threshould.
1005:Generated_Source\PSoC5/CapSense_CSD_CSHL.c ****     * 
1006:Generated_Source\PSoC5/CapSense_CSD_CSHL.c ****     * Return:
1007:Generated_Source\PSoC5/CapSense_CSD_CSHL.c ****     *  Returns position value of the slider.
1008:Generated_Source\PSoC5/CapSense_CSD_CSHL.c ****     * 
1009:Generated_Source\PSoC5/CapSense_CSD_CSHL.c ****     *
1010:Generated_Source\PSoC5/CapSense_CSD_CSHL.c ****     * Reentrant:
1011:Generated_Source\PSoC5/CapSense_CSD_CSHL.c ****     *  No.
1012:Generated_Source\PSoC5/CapSense_CSD_CSHL.c ****     *
1013:Generated_Source\PSoC5/CapSense_CSD_CSHL.c ****     *******************************************************************************/
1014:Generated_Source\PSoC5/CapSense_CSD_CSHL.c ****     uint8 CapSense_CSD_CalcCentroid(uint8 maximum, uint8 offset, 
1015:Generated_Source\PSoC5/CapSense_CSD_CSHL.c ****                                         uint8 count, uint16 resolution, uint16 noiseThreshold)
1016:Generated_Source\PSoC5/CapSense_CSD_CSHL.c **** 	                                    
1017:Generated_Source\PSoC5/CapSense_CSD_CSHL.c ****     {
 899              		.loc 1 1017 0
 900              		.cfi_startproc
 901              		@ args = 4, pretend = 0, frame = 0
 902              		@ frame_needed = 0, uses_anonymous_args = 0
 903              	.LVL119:
 904 0000 F0B5     		push	{r4, r5, r6, r7, lr}
 905              		.cfi_def_cfa_offset 20
 906              		.cfi_offset 4, -20
 907              		.cfi_offset 5, -16
ARM GAS  C:\Users\aryan\AppData\Local\Temp\ccEOeQjh.s 			page 35


 908              		.cfi_offset 6, -12
 909              		.cfi_offset 7, -8
 910              		.cfi_offset 14, -4
 911 0002 BDF81450 		ldrh	r5, [sp, #20]
 912              	.LVL120:
1018:Generated_Source\PSoC5/CapSense_CSD_CSHL.c ****         #if ((CapSense_CSD_TOTAL_LINEAR_SLIDERS_COUNT > 0u) || (CapSense_CSD_TOTAL_TOUCH_PADS_COUNT
1019:Generated_Source\PSoC5/CapSense_CSD_CSHL.c ****             uint8 posPrev = 0u;
1020:Generated_Source\PSoC5/CapSense_CSD_CSHL.c ****             uint8 posNext = 0u;
1021:Generated_Source\PSoC5/CapSense_CSD_CSHL.c ****         #endif /* ((CapSense_CSD_TOTAL_LINEAR_SLIDERS_COUNT>0u) || (CapSense_CSD_TOTAL_TOUCH_PADS_C
1022:Generated_Source\PSoC5/CapSense_CSD_CSHL.c ****                
1023:Generated_Source\PSoC5/CapSense_CSD_CSHL.c ****         #if (CapSense_CSD_IS_DIPLEX_SLIDER)                
1024:Generated_Source\PSoC5/CapSense_CSD_CSHL.c ****             uint8 pos;
1025:Generated_Source\PSoC5/CapSense_CSD_CSHL.c ****         #endif /* (CapSense_CSD_IS_DIPLEX_SLIDER) */
1026:Generated_Source\PSoC5/CapSense_CSD_CSHL.c ****         
1027:Generated_Source\PSoC5/CapSense_CSD_CSHL.c ****         /* Helps while centroid calulation */
1028:Generated_Source\PSoC5/CapSense_CSD_CSHL.c ****         static uint16 CapSense_CSD_centroid[3u];
1029:Generated_Source\PSoC5/CapSense_CSD_CSHL.c **** 
1030:Generated_Source\PSoC5/CapSense_CSD_CSHL.c ****         uint8 position;
1031:Generated_Source\PSoC5/CapSense_CSD_CSHL.c ****         uint32 numerator;
1032:Generated_Source\PSoC5/CapSense_CSD_CSHL.c ****         int32 denominator;
1033:Generated_Source\PSoC5/CapSense_CSD_CSHL.c ****         uint16 *startOfSlider = &CapSense_CSD_sensorSignal[offset];
 913              		.loc 1 1033 0
 914 0006 2A4C     		ldr	r4, .L92
 915 0008 04EB4101 		add	r1, r4, r1, lsl #1
 916              	.LVL121:
1034:Generated_Source\PSoC5/CapSense_CSD_CSHL.c ****                     
1035:Generated_Source\PSoC5/CapSense_CSD_CSHL.c ****         #if (CapSense_CSD_ADD_SLIDER_TYPE)
1036:Generated_Source\PSoC5/CapSense_CSD_CSHL.c ****             if(type == CapSense_CSD_TYPE_RADIAL_SLIDER)
1037:Generated_Source\PSoC5/CapSense_CSD_CSHL.c ****             {
1038:Generated_Source\PSoC5/CapSense_CSD_CSHL.c ****         #endif /* (CapSense_CSD_ADD_SLIDER_TYPE) */
1039:Generated_Source\PSoC5/CapSense_CSD_CSHL.c **** 
1040:Generated_Source\PSoC5/CapSense_CSD_CSHL.c ****             #if (CapSense_CSD_TOTAL_RADIAL_SLIDERS_COUNT > 0u)                
1041:Generated_Source\PSoC5/CapSense_CSD_CSHL.c ****                 /* Copy Signal for found centriod */
1042:Generated_Source\PSoC5/CapSense_CSD_CSHL.c ****                 CapSense_CSD_centroid[CapSense_CSD_POS] = startOfSlider[maximum];
1043:Generated_Source\PSoC5/CapSense_CSD_CSHL.c ****                  
1044:Generated_Source\PSoC5/CapSense_CSD_CSHL.c ****                 /* Check borders for ROTARY Slider */
1045:Generated_Source\PSoC5/CapSense_CSD_CSHL.c ****                 if (maximum == 0u)                   /* Start of centroid */
1046:Generated_Source\PSoC5/CapSense_CSD_CSHL.c ****                 { 
1047:Generated_Source\PSoC5/CapSense_CSD_CSHL.c ****                     CapSense_CSD_centroid[CapSense_CSD_POS_PREV] = startOfSlider[count - 1u];
1048:Generated_Source\PSoC5/CapSense_CSD_CSHL.c ****                     CapSense_CSD_centroid[CapSense_CSD_POS_NEXT] = startOfSlider[1u];
1049:Generated_Source\PSoC5/CapSense_CSD_CSHL.c ****                 }
1050:Generated_Source\PSoC5/CapSense_CSD_CSHL.c ****                 else if (maximum == (count - 1u))    /* End of centroid */
1051:Generated_Source\PSoC5/CapSense_CSD_CSHL.c ****                 {
1052:Generated_Source\PSoC5/CapSense_CSD_CSHL.c ****                     CapSense_CSD_centroid[CapSense_CSD_POS_PREV] = startOfSlider[maximum - 1u];
1053:Generated_Source\PSoC5/CapSense_CSD_CSHL.c ****                     CapSense_CSD_centroid[CapSense_CSD_POS_NEXT] = startOfSlider[0u];
1054:Generated_Source\PSoC5/CapSense_CSD_CSHL.c ****                 }
1055:Generated_Source\PSoC5/CapSense_CSD_CSHL.c ****                 else                                /* Not first Not last */
1056:Generated_Source\PSoC5/CapSense_CSD_CSHL.c ****                 {
1057:Generated_Source\PSoC5/CapSense_CSD_CSHL.c ****                     CapSense_CSD_centroid[CapSense_CSD_POS_PREV] = startOfSlider[maximum - 1u];
1058:Generated_Source\PSoC5/CapSense_CSD_CSHL.c ****                     CapSense_CSD_centroid[CapSense_CSD_POS_NEXT] = startOfSlider[maximum + 1u];
1059:Generated_Source\PSoC5/CapSense_CSD_CSHL.c ****                 }
1060:Generated_Source\PSoC5/CapSense_CSD_CSHL.c ****             #endif /* (CapSense_CSD_TOTAL_RADIAL_SLIDERS_COUNT > 0u) */
1061:Generated_Source\PSoC5/CapSense_CSD_CSHL.c **** 
1062:Generated_Source\PSoC5/CapSense_CSD_CSHL.c ****         #if (CapSense_CSD_ADD_SLIDER_TYPE)
1063:Generated_Source\PSoC5/CapSense_CSD_CSHL.c ****             }
1064:Generated_Source\PSoC5/CapSense_CSD_CSHL.c ****             else
1065:Generated_Source\PSoC5/CapSense_CSD_CSHL.c ****             {
ARM GAS  C:\Users\aryan\AppData\Local\Temp\ccEOeQjh.s 			page 36


1066:Generated_Source\PSoC5/CapSense_CSD_CSHL.c ****         #endif /* (CapSense_CSD_ADD_SLIDER_TYPE) */
1067:Generated_Source\PSoC5/CapSense_CSD_CSHL.c **** 
1068:Generated_Source\PSoC5/CapSense_CSD_CSHL.c ****             #if ((CapSense_CSD_TOTAL_LINEAR_SLIDERS_COUNT > 0u) || (CapSense_CSD_TOTAL_TOUCH_PADS_C
1069:Generated_Source\PSoC5/CapSense_CSD_CSHL.c ****                 #if (CapSense_CSD_IS_DIPLEX_SLIDER && CapSense_CSD_IS_NON_DIPLEX_SLIDER)           
1070:Generated_Source\PSoC5/CapSense_CSD_CSHL.c ****                     /* Calculate next and previous near to maximum */
1071:Generated_Source\PSoC5/CapSense_CSD_CSHL.c ****                     if(diplex == 0u)
1072:Generated_Source\PSoC5/CapSense_CSD_CSHL.c ****                     {
1073:Generated_Source\PSoC5/CapSense_CSD_CSHL.c ****                         pos     = maximum;
1074:Generated_Source\PSoC5/CapSense_CSD_CSHL.c ****                         posPrev = maximum - 1u;
1075:Generated_Source\PSoC5/CapSense_CSD_CSHL.c ****                         posNext = maximum + 1u; 
1076:Generated_Source\PSoC5/CapSense_CSD_CSHL.c ****                     }
1077:Generated_Source\PSoC5/CapSense_CSD_CSHL.c ****                     else
1078:Generated_Source\PSoC5/CapSense_CSD_CSHL.c ****                     {
1079:Generated_Source\PSoC5/CapSense_CSD_CSHL.c ****                         pos     = diplex[maximum];
1080:Generated_Source\PSoC5/CapSense_CSD_CSHL.c ****                         posPrev = diplex[maximum - 1u];
1081:Generated_Source\PSoC5/CapSense_CSD_CSHL.c ****                         posNext = diplex[maximum + 1u];
1082:Generated_Source\PSoC5/CapSense_CSD_CSHL.c ****                         count <<= 1u;
1083:Generated_Source\PSoC5/CapSense_CSD_CSHL.c ****                     }                    
1084:Generated_Source\PSoC5/CapSense_CSD_CSHL.c ****                 #elif (CapSense_CSD_IS_DIPLEX_SLIDER)
1085:Generated_Source\PSoC5/CapSense_CSD_CSHL.c ****                     /* Calculate next and previous near to maximum */
1086:Generated_Source\PSoC5/CapSense_CSD_CSHL.c ****                     pos     = diplex[maximum];
1087:Generated_Source\PSoC5/CapSense_CSD_CSHL.c ****                     posPrev = diplex[maximum - 1u];
1088:Generated_Source\PSoC5/CapSense_CSD_CSHL.c ****                     posNext = diplex[maximum + 1u];
1089:Generated_Source\PSoC5/CapSense_CSD_CSHL.c ****                     count <<= 1u;                    
1090:Generated_Source\PSoC5/CapSense_CSD_CSHL.c ****                 #else                    
1091:Generated_Source\PSoC5/CapSense_CSD_CSHL.c ****                     /* Calculate next and previous near to maximum */
1092:Generated_Source\PSoC5/CapSense_CSD_CSHL.c ****                     if (maximum >= 1u)
 917              		.loc 1 1092 0
 918 000c 0446     		mov	r4, r0
 919 000e 10B1     		cbz	r0, .L90
1093:Generated_Source\PSoC5/CapSense_CSD_CSHL.c ****                     {
1094:Generated_Source\PSoC5/CapSense_CSD_CSHL.c ****                         posPrev = maximum - 1u;
 920              		.loc 1 1094 0
 921 0010 461E     		subs	r6, r0, #1
 922 0012 F6B2     		uxtb	r6, r6
 923              	.LVL122:
 924 0014 00E0     		b	.L82
 925              	.LVL123:
 926              	.L90:
1019:Generated_Source\PSoC5/CapSense_CSD_CSHL.c ****             uint8 posNext = 0u;
 927              		.loc 1 1019 0
 928 0016 0026     		movs	r6, #0
 929              	.LVL124:
 930              	.L82:
1095:Generated_Source\PSoC5/CapSense_CSD_CSHL.c ****                     }
1096:Generated_Source\PSoC5/CapSense_CSD_CSHL.c ****                     posNext = maximum + 1u; 
 931              		.loc 1 1096 0
 932 0018 601C     		adds	r0, r4, #1
 933              	.LVL125:
 934 001a C0B2     		uxtb	r0, r0
 935              	.LVL126:
1097:Generated_Source\PSoC5/CapSense_CSD_CSHL.c ****                 #endif /* (CapSense_CSD_IS_DIPLEX_SLIDER && CapSense_CSD_IS_NON_DIPLEX_SLIDER) */
1098:Generated_Source\PSoC5/CapSense_CSD_CSHL.c ****                         
1099:Generated_Source\PSoC5/CapSense_CSD_CSHL.c ****                 /* Copy Signal for found centriod */
1100:Generated_Source\PSoC5/CapSense_CSD_CSHL.c ****                 #if (CapSense_CSD_IS_DIPLEX_SLIDER)
1101:Generated_Source\PSoC5/CapSense_CSD_CSHL.c ****                     CapSense_CSD_centroid[CapSense_CSD_POS] = startOfSlider[pos];
1102:Generated_Source\PSoC5/CapSense_CSD_CSHL.c ****                 #else
ARM GAS  C:\Users\aryan\AppData\Local\Temp\ccEOeQjh.s 			page 37


1103:Generated_Source\PSoC5/CapSense_CSD_CSHL.c ****                     CapSense_CSD_centroid[CapSense_CSD_POS] = startOfSlider[maximum];
 936              		.loc 1 1103 0
 937 001c 31F814E0 		ldrh	lr, [r1, r4, lsl #1]
 938 0020 244F     		ldr	r7, .L92+4
 939 0022 A7F806E0 		strh	lr, [r7, #6]	@ movhi
1104:Generated_Source\PSoC5/CapSense_CSD_CSHL.c ****                 #endif /* (CapSense_CSD_IS_DIPLEX_SLIDER) */
1105:Generated_Source\PSoC5/CapSense_CSD_CSHL.c ****                     
1106:Generated_Source\PSoC5/CapSense_CSD_CSHL.c ****                 /* Check borders for LINEAR Slider */
1107:Generated_Source\PSoC5/CapSense_CSD_CSHL.c ****                 if (maximum == 0u)                   /* Start of centroid */
 940              		.loc 1 1107 0
 941 0026 2CB9     		cbnz	r4, .L83
1108:Generated_Source\PSoC5/CapSense_CSD_CSHL.c ****                 { 
1109:Generated_Source\PSoC5/CapSense_CSD_CSHL.c ****                     CapSense_CSD_centroid[CapSense_CSD_POS_PREV] = 0u;
 942              		.loc 1 1109 0
 943 0028 0026     		movs	r6, #0
 944              	.LVL127:
 945 002a BE80     		strh	r6, [r7, #4]	@ movhi
1110:Generated_Source\PSoC5/CapSense_CSD_CSHL.c ****                     CapSense_CSD_centroid[CapSense_CSD_POS_NEXT] = startOfSlider[posNext];
 946              		.loc 1 1110 0
 947 002c 31F81010 		ldrh	r1, [r1, r0, lsl #1]
 948              	.LVL128:
 949 0030 3981     		strh	r1, [r7, #8]	@ movhi
 950 0032 10E0     		b	.L84
 951              	.LVL129:
 952              	.L83:
1111:Generated_Source\PSoC5/CapSense_CSD_CSHL.c ****                 }
1112:Generated_Source\PSoC5/CapSense_CSD_CSHL.c ****                 else if (maximum == ((count) - 1u)) /* End of centroid */
 953              		.loc 1 1112 0
 954 0034 013A     		subs	r2, r2, #1
 955              	.LVL130:
 956 0036 9442     		cmp	r4, r2
 957 0038 06D1     		bne	.L85
1113:Generated_Source\PSoC5/CapSense_CSD_CSHL.c ****                 {
1114:Generated_Source\PSoC5/CapSense_CSD_CSHL.c ****                     CapSense_CSD_centroid[CapSense_CSD_POS_PREV] = startOfSlider[posPrev];
 958              		.loc 1 1114 0
 959 003a 31F81610 		ldrh	r1, [r1, r6, lsl #1]
 960              	.LVL131:
 961 003e 1D4A     		ldr	r2, .L92+4
 962 0040 9180     		strh	r1, [r2, #4]	@ movhi
1115:Generated_Source\PSoC5/CapSense_CSD_CSHL.c ****                     CapSense_CSD_centroid[CapSense_CSD_POS_NEXT] = 0u;
 963              		.loc 1 1115 0
 964 0042 0021     		movs	r1, #0
 965 0044 1181     		strh	r1, [r2, #8]	@ movhi
 966 0046 06E0     		b	.L84
 967              	.LVL132:
 968              	.L85:
1116:Generated_Source\PSoC5/CapSense_CSD_CSHL.c ****                 }
1117:Generated_Source\PSoC5/CapSense_CSD_CSHL.c ****                 else                                /* Not first Not last */
1118:Generated_Source\PSoC5/CapSense_CSD_CSHL.c ****                 {
1119:Generated_Source\PSoC5/CapSense_CSD_CSHL.c ****                     CapSense_CSD_centroid[CapSense_CSD_POS_PREV] = startOfSlider[posPrev];
 969              		.loc 1 1119 0
 970 0048 31F81660 		ldrh	r6, [r1, r6, lsl #1]
 971              	.LVL133:
 972 004c 194A     		ldr	r2, .L92+4
 973 004e 9680     		strh	r6, [r2, #4]	@ movhi
1120:Generated_Source\PSoC5/CapSense_CSD_CSHL.c ****                     CapSense_CSD_centroid[CapSense_CSD_POS_NEXT] = startOfSlider[posNext];
 974              		.loc 1 1120 0
ARM GAS  C:\Users\aryan\AppData\Local\Temp\ccEOeQjh.s 			page 38


 975 0050 31F81010 		ldrh	r1, [r1, r0, lsl #1]
 976              	.LVL134:
 977 0054 1181     		strh	r1, [r2, #8]	@ movhi
 978              	.L84:
1121:Generated_Source\PSoC5/CapSense_CSD_CSHL.c ****                 }
1122:Generated_Source\PSoC5/CapSense_CSD_CSHL.c ****             #endif /* ((CapSense_CSD_TOTAL_LINEAR_SLIDERS_COUNT>0u)||(CapSense_CSD_TOTAL_TOUCH_PADS
1123:Generated_Source\PSoC5/CapSense_CSD_CSHL.c **** 
1124:Generated_Source\PSoC5/CapSense_CSD_CSHL.c ****         #if (CapSense_CSD_ADD_SLIDER_TYPE)
1125:Generated_Source\PSoC5/CapSense_CSD_CSHL.c ****             }
1126:Generated_Source\PSoC5/CapSense_CSD_CSHL.c ****         #endif /* (CapSense_CSD_ADD_SLIDER_TYPE) */
1127:Generated_Source\PSoC5/CapSense_CSD_CSHL.c ****     
1128:Generated_Source\PSoC5/CapSense_CSD_CSHL.c ****         /* Subtract noiseThreshold */
1129:Generated_Source\PSoC5/CapSense_CSD_CSHL.c ****         if(CapSense_CSD_centroid[CapSense_CSD_POS_PREV] > noiseThreshold)
 979              		.loc 1 1129 0
 980 0056 174A     		ldr	r2, .L92+4
 981 0058 9288     		ldrh	r2, [r2, #4]
 982 005a AA42     		cmp	r2, r5
 983 005c 03D9     		bls	.L86
1130:Generated_Source\PSoC5/CapSense_CSD_CSHL.c ****         {
1131:Generated_Source\PSoC5/CapSense_CSD_CSHL.c ****             CapSense_CSD_centroid[CapSense_CSD_POS_PREV] -= noiseThreshold;
 984              		.loc 1 1131 0
 985 005e 521B     		subs	r2, r2, r5
 986 0060 1449     		ldr	r1, .L92+4
 987 0062 8A80     		strh	r2, [r1, #4]	@ movhi
 988 0064 02E0     		b	.L87
 989              	.L86:
1132:Generated_Source\PSoC5/CapSense_CSD_CSHL.c ****         }
1133:Generated_Source\PSoC5/CapSense_CSD_CSHL.c ****         else
1134:Generated_Source\PSoC5/CapSense_CSD_CSHL.c ****         {
1135:Generated_Source\PSoC5/CapSense_CSD_CSHL.c ****             CapSense_CSD_centroid[CapSense_CSD_POS_PREV] = 0u;
 990              		.loc 1 1135 0
 991 0066 0021     		movs	r1, #0
 992 0068 124A     		ldr	r2, .L92+4
 993 006a 9180     		strh	r1, [r2, #4]	@ movhi
 994              	.L87:
1136:Generated_Source\PSoC5/CapSense_CSD_CSHL.c ****         }
1137:Generated_Source\PSoC5/CapSense_CSD_CSHL.c ****         
1138:Generated_Source\PSoC5/CapSense_CSD_CSHL.c ****         /* Maximum always grater than fingerThreshold, so grate than noiseThreshold */
1139:Generated_Source\PSoC5/CapSense_CSD_CSHL.c ****         CapSense_CSD_centroid[CapSense_CSD_POS] -= noiseThreshold;
 995              		.loc 1 1139 0
 996 006c 114A     		ldr	r2, .L92+4
 997 006e D188     		ldrh	r1, [r2, #6]
 998 0070 491B     		subs	r1, r1, r5
 999 0072 89B2     		uxth	r1, r1
 1000 0074 D180     		strh	r1, [r2, #6]	@ movhi
1140:Generated_Source\PSoC5/CapSense_CSD_CSHL.c ****         
1141:Generated_Source\PSoC5/CapSense_CSD_CSHL.c ****         /* Subtract noiseThreshold */
1142:Generated_Source\PSoC5/CapSense_CSD_CSHL.c ****         if(CapSense_CSD_centroid[CapSense_CSD_POS_NEXT] > noiseThreshold)
 1001              		.loc 1 1142 0
 1002 0076 1289     		ldrh	r2, [r2, #8]
 1003 0078 9542     		cmp	r5, r2
 1004 007a 03D2     		bcs	.L88
1143:Generated_Source\PSoC5/CapSense_CSD_CSHL.c ****         {
1144:Generated_Source\PSoC5/CapSense_CSD_CSHL.c ****             CapSense_CSD_centroid[CapSense_CSD_POS_NEXT] -= noiseThreshold;
 1005              		.loc 1 1144 0
 1006 007c 551B     		subs	r5, r2, r5
 1007 007e 0D4A     		ldr	r2, .L92+4
ARM GAS  C:\Users\aryan\AppData\Local\Temp\ccEOeQjh.s 			page 39


 1008 0080 1581     		strh	r5, [r2, #8]	@ movhi
 1009 0082 02E0     		b	.L89
 1010              	.L88:
1145:Generated_Source\PSoC5/CapSense_CSD_CSHL.c ****         }
1146:Generated_Source\PSoC5/CapSense_CSD_CSHL.c ****         else
1147:Generated_Source\PSoC5/CapSense_CSD_CSHL.c ****         {
1148:Generated_Source\PSoC5/CapSense_CSD_CSHL.c ****             CapSense_CSD_centroid[CapSense_CSD_POS_NEXT] = 0u;
 1011              		.loc 1 1148 0
 1012 0084 0020     		movs	r0, #0
 1013              	.LVL135:
 1014 0086 0B4A     		ldr	r2, .L92+4
 1015 0088 1081     		strh	r0, [r2, #8]	@ movhi
 1016              	.L89:
1149:Generated_Source\PSoC5/CapSense_CSD_CSHL.c ****         }
1150:Generated_Source\PSoC5/CapSense_CSD_CSHL.c ****         
1151:Generated_Source\PSoC5/CapSense_CSD_CSHL.c ****         
1152:Generated_Source\PSoC5/CapSense_CSD_CSHL.c ****         /* Si+1 - Si-1 */
1153:Generated_Source\PSoC5/CapSense_CSD_CSHL.c ****         numerator = (uint32) CapSense_CSD_centroid[CapSense_CSD_POS_NEXT] -
 1017              		.loc 1 1153 0
 1018 008a 0A4A     		ldr	r2, .L92+4
 1019 008c 1089     		ldrh	r0, [r2, #8]
1154:Generated_Source\PSoC5/CapSense_CSD_CSHL.c ****                     (uint32) CapSense_CSD_centroid[CapSense_CSD_POS_PREV];
 1020              		.loc 1 1154 0
 1021 008e 9588     		ldrh	r5, [r2, #4]
1153:Generated_Source\PSoC5/CapSense_CSD_CSHL.c ****                     (uint32) CapSense_CSD_centroid[CapSense_CSD_POS_PREV];
 1022              		.loc 1 1153 0
 1023 0090 421B     		subs	r2, r0, r5
 1024              	.LVL136:
1155:Generated_Source\PSoC5/CapSense_CSD_CSHL.c **** 
1156:Generated_Source\PSoC5/CapSense_CSD_CSHL.c ****         /* Si+1 + Si + Si-1 */
1157:Generated_Source\PSoC5/CapSense_CSD_CSHL.c ****         denominator = (int32) CapSense_CSD_centroid[CapSense_CSD_POS_PREV] + 
 1025              		.loc 1 1157 0
 1026 0092 2944     		add	r1, r1, r5
 1027 0094 0844     		add	r0, r0, r1
 1028              	.LVL137:
1158:Generated_Source\PSoC5/CapSense_CSD_CSHL.c ****                       (int32) CapSense_CSD_centroid[CapSense_CSD_POS] + 
1159:Generated_Source\PSoC5/CapSense_CSD_CSHL.c ****                       (int32) CapSense_CSD_centroid[CapSense_CSD_POS_NEXT];
1160:Generated_Source\PSoC5/CapSense_CSD_CSHL.c ****         
1161:Generated_Source\PSoC5/CapSense_CSD_CSHL.c ****         /* (numerator/denominator) + maximum */
1162:Generated_Source\PSoC5/CapSense_CSD_CSHL.c ****         denominator = (((int32)(uint32)((uint32)numerator << 8u)/denominator) + (int32)(uint32)((ui
 1029              		.loc 1 1162 0
 1030 0096 1202     		lsls	r2, r2, #8
 1031              	.LVL138:
 1032 0098 92FBF0F0 		sdiv	r0, r2, r0
 1033              	.LVL139:
 1034 009c 00EB0420 		add	r0, r0, r4, lsl #8
 1035              	.LVL140:
1163:Generated_Source\PSoC5/CapSense_CSD_CSHL.c **** 
1164:Generated_Source\PSoC5/CapSense_CSD_CSHL.c ****         #if(CapSense_CSD_TOTAL_RADIAL_SLIDERS_COUNT > 0u)
1165:Generated_Source\PSoC5/CapSense_CSD_CSHL.c ****             /* Only required for RADIAL Slider */
1166:Generated_Source\PSoC5/CapSense_CSD_CSHL.c ****             if(denominator < 0)
1167:Generated_Source\PSoC5/CapSense_CSD_CSHL.c ****             {
1168:Generated_Source\PSoC5/CapSense_CSD_CSHL.c ****                 denominator += (int32)((uint16)((uint16) count << 8u));
1169:Generated_Source\PSoC5/CapSense_CSD_CSHL.c ****             }
1170:Generated_Source\PSoC5/CapSense_CSD_CSHL.c ****         #endif /* (CapSense_CSD_TOTAL_RADIAL_SLIDERS_COUNT > 0u) */
1171:Generated_Source\PSoC5/CapSense_CSD_CSHL.c **** 
1172:Generated_Source\PSoC5/CapSense_CSD_CSHL.c ****         denominator *= (int16)resolution;
ARM GAS  C:\Users\aryan\AppData\Local\Temp\ccEOeQjh.s 			page 40


 1036              		.loc 1 1172 0
 1037 00a0 1BB2     		sxth	r3, r3
 1038 00a2 00FB03F0 		mul	r0, r0, r3
 1039              	.LVL141:
1173:Generated_Source\PSoC5/CapSense_CSD_CSHL.c **** 
1174:Generated_Source\PSoC5/CapSense_CSD_CSHL.c ****         /* Round the relust and put it to uint8 */
1175:Generated_Source\PSoC5/CapSense_CSD_CSHL.c ****         position = ((uint8) HI16((uint32)denominator + CapSense_CSD_CENTROID_ROUND_VALUE));
 1040              		.loc 1 1175 0
 1041 00a6 00F5FE40 		add	r0, r0, #32512
 1042              	.LVL142:
1176:Generated_Source\PSoC5/CapSense_CSD_CSHL.c **** 
1177:Generated_Source\PSoC5/CapSense_CSD_CSHL.c ****         return (position);
1178:Generated_Source\PSoC5/CapSense_CSD_CSHL.c ****     }    
 1043              		.loc 1 1178 0
 1044 00aa C0F30740 		ubfx	r0, r0, #16, #8
 1045              	.LVL143:
 1046 00ae F0BD     		pop	{r4, r5, r6, r7, pc}
 1047              	.LVL144:
 1048              	.L93:
 1049              		.align	2
 1050              	.L92:
 1051 00b0 00000000 		.word	CapSense_CSD_sensorSignal
 1052 00b4 00000000 		.word	.LANCHOR1
 1053              		.cfi_endproc
 1054              	.LFE12:
 1055              		.size	CapSense_CSD_CalcCentroid, .-CapSense_CSD_CalcCentroid
 1056              		.section	.text.CapSense_CSD_GetCentroidPos,"ax",%progbits
 1057              		.align	2
 1058              		.global	CapSense_CSD_GetCentroidPos
 1059              		.thumb
 1060              		.thumb_func
 1061              		.type	CapSense_CSD_GetCentroidPos, %function
 1062              	CapSense_CSD_GetCentroidPos:
 1063              	.LFB13:
1179:Generated_Source\PSoC5/CapSense_CSD_CSHL.c **** #endif /* (CapSense_CSD_TOTAL_CENTROIDS_COUNT) */
1180:Generated_Source\PSoC5/CapSense_CSD_CSHL.c **** 
1181:Generated_Source\PSoC5/CapSense_CSD_CSHL.c **** 
1182:Generated_Source\PSoC5/CapSense_CSD_CSHL.c **** #if(CapSense_CSD_TOTAL_LINEAR_SLIDERS_COUNT > 0u)
1183:Generated_Source\PSoC5/CapSense_CSD_CSHL.c ****     /*******************************************************************************
1184:Generated_Source\PSoC5/CapSense_CSD_CSHL.c ****     * Function Name: CapSense_CSD_GetCentroidPos
1185:Generated_Source\PSoC5/CapSense_CSD_CSHL.c ****     ********************************************************************************
1186:Generated_Source\PSoC5/CapSense_CSD_CSHL.c ****     *
1187:Generated_Source\PSoC5/CapSense_CSD_CSHL.c ****     * Summary:
1188:Generated_Source\PSoC5/CapSense_CSD_CSHL.c ****     *  Checks the CapSense_CSD_Signal[ ] array for a centroid within
1189:Generated_Source\PSoC5/CapSense_CSD_CSHL.c ****     *  slider specified range. The centroid position is calculated to the resolution
1190:Generated_Source\PSoC5/CapSense_CSD_CSHL.c ****     *  specified in the CapSense customizer. The position filters are applied to the
1191:Generated_Source\PSoC5/CapSense_CSD_CSHL.c ****     *  result if enabled.
1192:Generated_Source\PSoC5/CapSense_CSD_CSHL.c ****     *
1193:Generated_Source\PSoC5/CapSense_CSD_CSHL.c ****     * Parameters:
1194:Generated_Source\PSoC5/CapSense_CSD_CSHL.c ****     *  widget:  Widget number.
1195:Generated_Source\PSoC5/CapSense_CSD_CSHL.c ****     *  For every linear slider widget there are defines in this format:
1196:Generated_Source\PSoC5/CapSense_CSD_CSHL.c ****     *  #define CapSense_CSD_LS__"widget_name"            5
1197:Generated_Source\PSoC5/CapSense_CSD_CSHL.c ****     * 
1198:Generated_Source\PSoC5/CapSense_CSD_CSHL.c ****     * Return:
1199:Generated_Source\PSoC5/CapSense_CSD_CSHL.c ****     *  Returns position value of the linear slider.
1200:Generated_Source\PSoC5/CapSense_CSD_CSHL.c ****     *
1201:Generated_Source\PSoC5/CapSense_CSD_CSHL.c ****     * Side Effects:
ARM GAS  C:\Users\aryan\AppData\Local\Temp\ccEOeQjh.s 			page 41


1202:Generated_Source\PSoC5/CapSense_CSD_CSHL.c ****     *  If any sensor within the slider widget is active, the function returns values
1203:Generated_Source\PSoC5/CapSense_CSD_CSHL.c ****     *  from zero to the API resolution value set in the CapSense customizer. If no
1204:Generated_Source\PSoC5/CapSense_CSD_CSHL.c ****     *  sensors are active, the function returns 0xFFFF. If an error occurs during
1205:Generated_Source\PSoC5/CapSense_CSD_CSHL.c ****     *  execution of the centroid/diplexing algorithm, the function returns 0xFFFF.
1206:Generated_Source\PSoC5/CapSense_CSD_CSHL.c ****     *  There are no checks of widget type argument provided to this function.
1207:Generated_Source\PSoC5/CapSense_CSD_CSHL.c ****     *  The unproper widget type provided will cause unexpected position calculations.
1208:Generated_Source\PSoC5/CapSense_CSD_CSHL.c ****     *
1209:Generated_Source\PSoC5/CapSense_CSD_CSHL.c ****     * Note:
1210:Generated_Source\PSoC5/CapSense_CSD_CSHL.c ****     *  If noise counts on the slider segments are greater than the noise
1211:Generated_Source\PSoC5/CapSense_CSD_CSHL.c ****     *  threshold, this subroutine may generate a false centroid result. The noise
1212:Generated_Source\PSoC5/CapSense_CSD_CSHL.c ****     *  threshold should be set carefully (high enough above the noise level) so
1213:Generated_Source\PSoC5/CapSense_CSD_CSHL.c ****     *  that noise will not generate a false centroid.
1214:Generated_Source\PSoC5/CapSense_CSD_CSHL.c ****     *
1215:Generated_Source\PSoC5/CapSense_CSD_CSHL.c ****     * Reentrant:
1216:Generated_Source\PSoC5/CapSense_CSD_CSHL.c ****     *  No.
1217:Generated_Source\PSoC5/CapSense_CSD_CSHL.c ****     *
1218:Generated_Source\PSoC5/CapSense_CSD_CSHL.c ****     *******************************************************************************/
1219:Generated_Source\PSoC5/CapSense_CSD_CSHL.c ****     uint16 CapSense_CSD_GetCentroidPos(uint8 widget) 
1220:Generated_Source\PSoC5/CapSense_CSD_CSHL.c ****     {
 1064              		.loc 1 1220 0
 1065              		.cfi_startproc
 1066              		@ args = 0, pretend = 0, frame = 0
 1067              		@ frame_needed = 0, uses_anonymous_args = 0
 1068              	.LVL145:
 1069 0000 70B5     		push	{r4, r5, r6, lr}
 1070              		.cfi_def_cfa_offset 16
 1071              		.cfi_offset 4, -16
 1072              		.cfi_offset 5, -12
 1073              		.cfi_offset 6, -8
 1074              		.cfi_offset 14, -4
 1075 0002 82B0     		sub	sp, sp, #8
 1076              		.cfi_def_cfa_offset 24
 1077 0004 0446     		mov	r4, r0
1221:Generated_Source\PSoC5/CapSense_CSD_CSHL.c ****         #if (CapSense_CSD_IS_DIPLEX_SLIDER)
1222:Generated_Source\PSoC5/CapSense_CSD_CSHL.c ****             const uint8 CYCODE *diplex;
1223:Generated_Source\PSoC5/CapSense_CSD_CSHL.c ****         #endif /* (CapSense_CSD_IS_DIPLEX_SLIDER) */
1224:Generated_Source\PSoC5/CapSense_CSD_CSHL.c ****                 
1225:Generated_Source\PSoC5/CapSense_CSD_CSHL.c ****         #if (0u != CapSense_CSD_LINEAR_SLIDERS_POS_FILTERS_MASK)
1226:Generated_Source\PSoC5/CapSense_CSD_CSHL.c ****             uint8 posIndex;
1227:Generated_Source\PSoC5/CapSense_CSD_CSHL.c ****             uint8 firstTimeIndex = CapSense_CSD_posFiltersData[widget];
1228:Generated_Source\PSoC5/CapSense_CSD_CSHL.c ****             uint8 posFiltersMask = CapSense_CSD_posFiltersMask[widget];  
1229:Generated_Source\PSoC5/CapSense_CSD_CSHL.c ****         #endif /* (0u != CapSense_CSD_LINEAR_SLIDERS_POS_FILTERS_MASK) */
1230:Generated_Source\PSoC5/CapSense_CSD_CSHL.c **** 
1231:Generated_Source\PSoC5/CapSense_CSD_CSHL.c ****         #if ((0u != (CapSense_CSD_MEDIAN_FILTER & CapSense_CSD_LINEAR_SLIDERS_POS_FILTERS_MASK)) ||
1232:Generated_Source\PSoC5/CapSense_CSD_CSHL.c ****              (0u != (CapSense_CSD_AVERAGING_FILTER & CapSense_CSD_LINEAR_SLIDERS_POS_FILTERS_MASK))
1233:Generated_Source\PSoC5/CapSense_CSD_CSHL.c ****             uint8 tempPos;
1234:Generated_Source\PSoC5/CapSense_CSD_CSHL.c ****         #endif /* ((0u != (CapSense_CSD_MEDIAN_FILTER & CapSense_CSD_LINEAR_SLIDERS_POS_FILTERS_MAS
1235:Generated_Source\PSoC5/CapSense_CSD_CSHL.c ****                *   (0u != (CapSense_CSD_AVERAGING_FILTER & CapSense_CSD_LINEAR_SLIDERS_POS_FILTERS_
1236:Generated_Source\PSoC5/CapSense_CSD_CSHL.c ****                */
1237:Generated_Source\PSoC5/CapSense_CSD_CSHL.c **** 
1238:Generated_Source\PSoC5/CapSense_CSD_CSHL.c ****         uint8 maximum;
1239:Generated_Source\PSoC5/CapSense_CSD_CSHL.c ****         uint16 position;
1240:Generated_Source\PSoC5/CapSense_CSD_CSHL.c ****         uint8 offset = CapSense_CSD_rawDataIndex[widget];
 1078              		.loc 1 1240 0
 1079 0006 0F4B     		ldr	r3, .L98
 1080 0008 1A18     		adds	r2, r3, r0
 1081 000a 157F     		ldrb	r5, [r2, #28]	@ zero_extendqisi2
ARM GAS  C:\Users\aryan\AppData\Local\Temp\ccEOeQjh.s 			page 42


 1082              	.LVL146:
1241:Generated_Source\PSoC5/CapSense_CSD_CSHL.c ****         uint8 count = CapSense_CSD_numberOfSensors[widget];
 1083              		.loc 1 1241 0
 1084 000c 92F82060 		ldrb	r6, [r2, #32]	@ zero_extendqisi2
 1085              	.LVL147:
1242:Generated_Source\PSoC5/CapSense_CSD_CSHL.c ****                         
1243:Generated_Source\PSoC5/CapSense_CSD_CSHL.c ****         #if (CapSense_CSD_IS_DIPLEX_SLIDER)
1244:Generated_Source\PSoC5/CapSense_CSD_CSHL.c ****             if(widget < CapSense_CSD_TOTAL_DIPLEXED_SLIDERS_COUNT)
1245:Generated_Source\PSoC5/CapSense_CSD_CSHL.c ****             {
1246:Generated_Source\PSoC5/CapSense_CSD_CSHL.c ****                 maximum = CapSense_CSD_diplexTable[widget];
1247:Generated_Source\PSoC5/CapSense_CSD_CSHL.c ****                 diplex = &CapSense_CSD_diplexTable[maximum];
1248:Generated_Source\PSoC5/CapSense_CSD_CSHL.c ****             }
1249:Generated_Source\PSoC5/CapSense_CSD_CSHL.c ****             else
1250:Generated_Source\PSoC5/CapSense_CSD_CSHL.c ****             {
1251:Generated_Source\PSoC5/CapSense_CSD_CSHL.c ****                 diplex = 0u;
1252:Generated_Source\PSoC5/CapSense_CSD_CSHL.c ****             }
1253:Generated_Source\PSoC5/CapSense_CSD_CSHL.c ****         #endif /* (CapSense_CSD_IS_DIPLEX_SLIDER) */
1254:Generated_Source\PSoC5/CapSense_CSD_CSHL.c **** 
1255:Generated_Source\PSoC5/CapSense_CSD_CSHL.c ****         /* Find Maximum within centroid */      
1256:Generated_Source\PSoC5/CapSense_CSD_CSHL.c ****         #if (CapSense_CSD_IS_DIPLEX_SLIDER)        
1257:Generated_Source\PSoC5/CapSense_CSD_CSHL.c ****             maximum = CapSense_CSD_FindMaximum(offset, count, CapSense_CSD_fingerThreshold[widget],
1258:Generated_Source\PSoC5/CapSense_CSD_CSHL.c ****         #else
1259:Generated_Source\PSoC5/CapSense_CSD_CSHL.c ****             maximum = CapSense_CSD_FindMaximum(offset, count, CapSense_CSD_fingerThreshold[widget])
 1086              		.loc 1 1259 0
 1087 0010 03EB4003 		add	r3, r3, r0, lsl #1
 1088 0014 9A89     		ldrh	r2, [r3, #12]
 1089 0016 3146     		mov	r1, r6
 1090 0018 2846     		mov	r0, r5
 1091              	.LVL148:
 1092 001a FFF7FEFF 		bl	CapSense_CSD_FindMaximum
 1093              	.LVL149:
1260:Generated_Source\PSoC5/CapSense_CSD_CSHL.c ****         #endif /* (CapSense_CSD_IS_DIPLEX_SLIDER) */
1261:Generated_Source\PSoC5/CapSense_CSD_CSHL.c **** 
1262:Generated_Source\PSoC5/CapSense_CSD_CSHL.c ****         if (maximum != 0xFFu)
 1094              		.loc 1 1262 0
 1095 001e FF28     		cmp	r0, #255
 1096 0020 0CD0     		beq	.L96
1263:Generated_Source\PSoC5/CapSense_CSD_CSHL.c ****         {
1264:Generated_Source\PSoC5/CapSense_CSD_CSHL.c ****             /* Calculate centroid */
1265:Generated_Source\PSoC5/CapSense_CSD_CSHL.c ****             position = (uint16) CapSense_CSD_CalcCentroid(maximum, 
 1097              		.loc 1 1265 0
 1098 0022 084B     		ldr	r3, .L98
 1099 0024 03EB4404 		add	r4, r3, r4, lsl #1
 1100 0028 A388     		ldrh	r3, [r4, #4]
 1101 002a 0093     		str	r3, [sp]
 1102 002c 4FF4C853 		mov	r3, #6400
 1103 0030 3246     		mov	r2, r6
 1104 0032 2946     		mov	r1, r5
 1105 0034 FFF7FEFF 		bl	CapSense_CSD_CalcCentroid
 1106              	.LVL150:
 1107 0038 80B2     		uxth	r0, r0
 1108              	.LVL151:
 1109 003a 01E0     		b	.L95
 1110              	.LVL152:
 1111              	.L96:
1266:Generated_Source\PSoC5/CapSense_CSD_CSHL.c ****                          offset, count, CapSense_CSD_centroidMult[widget], CapSense_CSD_noiseThresh
1267:Generated_Source\PSoC5/CapSense_CSD_CSHL.c **** 
ARM GAS  C:\Users\aryan\AppData\Local\Temp\ccEOeQjh.s 			page 43


1268:Generated_Source\PSoC5/CapSense_CSD_CSHL.c ****             #if (0u != CapSense_CSD_LINEAR_SLIDERS_POS_FILTERS_MASK)
1269:Generated_Source\PSoC5/CapSense_CSD_CSHL.c ****                 /* Check if this linear slider has enabled filters */
1270:Generated_Source\PSoC5/CapSense_CSD_CSHL.c ****                 if (0u != (posFiltersMask & CapSense_CSD_ANY_POS_FILTER))
1271:Generated_Source\PSoC5/CapSense_CSD_CSHL.c ****                 {
1272:Generated_Source\PSoC5/CapSense_CSD_CSHL.c ****                     /* Caluclate position to store filters data */
1273:Generated_Source\PSoC5/CapSense_CSD_CSHL.c ****                     posIndex  = firstTimeIndex + 1u;
1274:Generated_Source\PSoC5/CapSense_CSD_CSHL.c ****                     
1275:Generated_Source\PSoC5/CapSense_CSD_CSHL.c ****                     if (0u == CapSense_CSD_posFiltersData[firstTimeIndex])
1276:Generated_Source\PSoC5/CapSense_CSD_CSHL.c ****                     {
1277:Generated_Source\PSoC5/CapSense_CSD_CSHL.c ****                         /* Init filters */
1278:Generated_Source\PSoC5/CapSense_CSD_CSHL.c ****                         CapSense_CSD_posFiltersData[posIndex] = (uint8) position;
1279:Generated_Source\PSoC5/CapSense_CSD_CSHL.c ****                         #if ((0u != (CapSense_CSD_MEDIAN_FILTER & \
1280:Generated_Source\PSoC5/CapSense_CSD_CSHL.c ****                                      CapSense_CSD_LINEAR_SLIDERS_POS_FILTERS_MASK)) || \
1281:Generated_Source\PSoC5/CapSense_CSD_CSHL.c ****                              (0u != (CapSense_CSD_AVERAGING_FILTER & \
1282:Generated_Source\PSoC5/CapSense_CSD_CSHL.c ****                                      CapSense_CSD_LINEAR_SLIDERS_POS_FILTERS_MASK)))
1283:Generated_Source\PSoC5/CapSense_CSD_CSHL.c **** 
1284:Generated_Source\PSoC5/CapSense_CSD_CSHL.c ****                             if ( (0u != (posFiltersMask & CapSense_CSD_MEDIAN_FILTER)) || 
1285:Generated_Source\PSoC5/CapSense_CSD_CSHL.c ****                                  (0u != (posFiltersMask & CapSense_CSD_AVERAGING_FILTER)) )
1286:Generated_Source\PSoC5/CapSense_CSD_CSHL.c ****                             {
1287:Generated_Source\PSoC5/CapSense_CSD_CSHL.c ****                                 CapSense_CSD_posFiltersData[posIndex + 1u] = (uint8) position;
1288:Generated_Source\PSoC5/CapSense_CSD_CSHL.c ****                             }
1289:Generated_Source\PSoC5/CapSense_CSD_CSHL.c ****                         #endif /* ((0u != (CapSense_CSD_MEDIAN_FILTER & \
1290:Generated_Source\PSoC5/CapSense_CSD_CSHL.c ****                                *           CapSense_CSD_LINEAR_SLIDERS_POS_FILTERS_MASK)) || \
1291:Generated_Source\PSoC5/CapSense_CSD_CSHL.c ****                                *   (0u != (CapSense_CSD_AVERAGING_FILTER & \
1292:Generated_Source\PSoC5/CapSense_CSD_CSHL.c ****                                *           CapSense_CSD_LINEAR_SLIDERS_POS_FILTERS_MASK)))
1293:Generated_Source\PSoC5/CapSense_CSD_CSHL.c ****                                */
1294:Generated_Source\PSoC5/CapSense_CSD_CSHL.c ****                         
1295:Generated_Source\PSoC5/CapSense_CSD_CSHL.c ****                         CapSense_CSD_posFiltersData[firstTimeIndex] = 1u;
1296:Generated_Source\PSoC5/CapSense_CSD_CSHL.c ****                     }
1297:Generated_Source\PSoC5/CapSense_CSD_CSHL.c ****                     else
1298:Generated_Source\PSoC5/CapSense_CSD_CSHL.c ****                     {
1299:Generated_Source\PSoC5/CapSense_CSD_CSHL.c ****                         /* Do filtering */
1300:Generated_Source\PSoC5/CapSense_CSD_CSHL.c ****                         #if (0u != (CapSense_CSD_MEDIAN_FILTER & CapSense_CSD_LINEAR_SLIDERS_POS_FI
1301:Generated_Source\PSoC5/CapSense_CSD_CSHL.c ****                             if (0u != (posFiltersMask & CapSense_CSD_MEDIAN_FILTER))
1302:Generated_Source\PSoC5/CapSense_CSD_CSHL.c ****                             {
1303:Generated_Source\PSoC5/CapSense_CSD_CSHL.c ****                                 tempPos = (uint8) position;
1304:Generated_Source\PSoC5/CapSense_CSD_CSHL.c ****                                 position = CapSense_CSD_MedianFilter(position,
1305:Generated_Source\PSoC5/CapSense_CSD_CSHL.c ****                                                                 (uint16)CapSense_CSD_posFiltersData
1306:Generated_Source\PSoC5/CapSense_CSD_CSHL.c ****                                                                 (uint16)CapSense_CSD_posFiltersData
1307:Generated_Source\PSoC5/CapSense_CSD_CSHL.c ****                                 CapSense_CSD_posFiltersData[posIndex + 1u] =
1308:Generated_Source\PSoC5/CapSense_CSD_CSHL.c ****                                                                              CapSense_CSD_posFilter
1309:Generated_Source\PSoC5/CapSense_CSD_CSHL.c ****                                 CapSense_CSD_posFiltersData[posIndex] = tempPos;
1310:Generated_Source\PSoC5/CapSense_CSD_CSHL.c ****                             }
1311:Generated_Source\PSoC5/CapSense_CSD_CSHL.c ****                         #endif /*(0u != (CapSense_CSD_MEDIAN_FILTER &
1312:Generated_Source\PSoC5/CapSense_CSD_CSHL.c ****                                *         CapSense_CSD_LINEAR_SLIDERS_POS_FILTERS_MASK))
1313:Generated_Source\PSoC5/CapSense_CSD_CSHL.c ****                                */
1314:Generated_Source\PSoC5/CapSense_CSD_CSHL.c **** 
1315:Generated_Source\PSoC5/CapSense_CSD_CSHL.c ****                         #if(0u!=(CapSense_CSD_AVERAGING_FILTER & CapSense_CSD_LINEAR_SLIDERS_POS_FI
1316:Generated_Source\PSoC5/CapSense_CSD_CSHL.c ****                             if (0u != (posFiltersMask & CapSense_CSD_AVERAGING_FILTER)) 
1317:Generated_Source\PSoC5/CapSense_CSD_CSHL.c ****                             {
1318:Generated_Source\PSoC5/CapSense_CSD_CSHL.c ****                                 tempPos = (uint8) position;
1319:Generated_Source\PSoC5/CapSense_CSD_CSHL.c ****                                 position = CapSense_CSD_AveragingFilter(position,
1320:Generated_Source\PSoC5/CapSense_CSD_CSHL.c ****                                                                 (uint16)CapSense_CSD_posFiltersData
1321:Generated_Source\PSoC5/CapSense_CSD_CSHL.c ****                                                                 (uint16)CapSense_CSD_posFiltersData
1322:Generated_Source\PSoC5/CapSense_CSD_CSHL.c ****                                 CapSense_CSD_posFiltersData[posIndex+1u]=CapSense_CSD_posFiltersDat
1323:Generated_Source\PSoC5/CapSense_CSD_CSHL.c ****                                 CapSense_CSD_posFiltersData[posIndex] = tempPos;
1324:Generated_Source\PSoC5/CapSense_CSD_CSHL.c ****                             }
ARM GAS  C:\Users\aryan\AppData\Local\Temp\ccEOeQjh.s 			page 44


1325:Generated_Source\PSoC5/CapSense_CSD_CSHL.c ****                         #endif /* (0u != (CapSense_CSD_AVERAGING_FILTER & \
1326:Generated_Source\PSoC5/CapSense_CSD_CSHL.c ****                                *           CapSense_CSD_LINEAR_SLIDERS_POS_FILTERS_MASK))
1327:Generated_Source\PSoC5/CapSense_CSD_CSHL.c ****                                */
1328:Generated_Source\PSoC5/CapSense_CSD_CSHL.c **** 
1329:Generated_Source\PSoC5/CapSense_CSD_CSHL.c ****                         #if (0u != (CapSense_CSD_IIR2_FILTER & CapSense_CSD_LINEAR_SLIDERS_POS_FILT
1330:Generated_Source\PSoC5/CapSense_CSD_CSHL.c ****                             if (0u != (posFiltersMask & CapSense_CSD_IIR2_FILTER)) 
1331:Generated_Source\PSoC5/CapSense_CSD_CSHL.c ****                             {
1332:Generated_Source\PSoC5/CapSense_CSD_CSHL.c ****                                 position = CapSense_CSD_IIR2Filter(position,
1333:Generated_Source\PSoC5/CapSense_CSD_CSHL.c ****                                                                     (uint16)CapSense_CSD_posFilters
1334:Generated_Source\PSoC5/CapSense_CSD_CSHL.c ****                                 CapSense_CSD_posFiltersData[posIndex] = (uint8) position;
1335:Generated_Source\PSoC5/CapSense_CSD_CSHL.c ****                             }
1336:Generated_Source\PSoC5/CapSense_CSD_CSHL.c ****                         #endif /* (0u != (CapSense_CSD_IIR2_FILTER & \
1337:Generated_Source\PSoC5/CapSense_CSD_CSHL.c ****                                *          CapSense_CSD_LINEAR_SLIDERS_POS_FILTERS_MASK))
1338:Generated_Source\PSoC5/CapSense_CSD_CSHL.c ****                                */
1339:Generated_Source\PSoC5/CapSense_CSD_CSHL.c **** 
1340:Generated_Source\PSoC5/CapSense_CSD_CSHL.c ****                         #if (0u != (CapSense_CSD_IIR4_FILTER & CapSense_CSD_LINEAR_SLIDERS_POS_FILT
1341:Generated_Source\PSoC5/CapSense_CSD_CSHL.c ****                             if (0u != (posFiltersMask & CapSense_CSD_IIR4_FILTER))
1342:Generated_Source\PSoC5/CapSense_CSD_CSHL.c ****                             {
1343:Generated_Source\PSoC5/CapSense_CSD_CSHL.c ****                                 position = CapSense_CSD_IIR4Filter(position,
1344:Generated_Source\PSoC5/CapSense_CSD_CSHL.c ****                                                                     (uint16)CapSense_CSD_posFilters
1345:Generated_Source\PSoC5/CapSense_CSD_CSHL.c ****                                 CapSense_CSD_posFiltersData[posIndex] = (uint8) position;
1346:Generated_Source\PSoC5/CapSense_CSD_CSHL.c ****                             }                                
1347:Generated_Source\PSoC5/CapSense_CSD_CSHL.c ****                         #endif /* (0u != (CapSense_CSD_IIR4_FILTER & \
1348:Generated_Source\PSoC5/CapSense_CSD_CSHL.c ****                                *          CapSense_CSD_LINEAR_SLIDERS_POS_FILTERS_MASK))
1349:Generated_Source\PSoC5/CapSense_CSD_CSHL.c ****                                */
1350:Generated_Source\PSoC5/CapSense_CSD_CSHL.c **** 
1351:Generated_Source\PSoC5/CapSense_CSD_CSHL.c ****                         #if (0u != (CapSense_CSD_JITTER_FILTER & CapSense_CSD_LINEAR_SLIDERS_POS_FI
1352:Generated_Source\PSoC5/CapSense_CSD_CSHL.c ****                             if (0u != (posFiltersMask & CapSense_CSD_JITTER_FILTER))
1353:Generated_Source\PSoC5/CapSense_CSD_CSHL.c ****                             {
1354:Generated_Source\PSoC5/CapSense_CSD_CSHL.c ****                                 position = CapSense_CSD_JitterFilter(position,
1355:Generated_Source\PSoC5/CapSense_CSD_CSHL.c ****                                                                     (uint16)CapSense_CSD_posFilters
1356:Generated_Source\PSoC5/CapSense_CSD_CSHL.c ****                                 CapSense_CSD_posFiltersData[posIndex] = (uint8) position;
1357:Generated_Source\PSoC5/CapSense_CSD_CSHL.c ****                             }
1358:Generated_Source\PSoC5/CapSense_CSD_CSHL.c ****                         #endif /* (0u != (CapSense_CSD_JITTER_FILTER & \
1359:Generated_Source\PSoC5/CapSense_CSD_CSHL.c ****                                *           CapSense_CSD_LINEAR_SLIDERS_POS_FILTERS_MASK))
1360:Generated_Source\PSoC5/CapSense_CSD_CSHL.c ****                                */
1361:Generated_Source\PSoC5/CapSense_CSD_CSHL.c ****                     }
1362:Generated_Source\PSoC5/CapSense_CSD_CSHL.c ****                 }
1363:Generated_Source\PSoC5/CapSense_CSD_CSHL.c ****             #endif /* (0u != CapSense_CSD_LINEAR_SLIDERS_POS_FILTERS_MASK) */
1364:Generated_Source\PSoC5/CapSense_CSD_CSHL.c **** 
1365:Generated_Source\PSoC5/CapSense_CSD_CSHL.c ****         }
1366:Generated_Source\PSoC5/CapSense_CSD_CSHL.c ****         else
1367:Generated_Source\PSoC5/CapSense_CSD_CSHL.c ****         {
1368:Generated_Source\PSoC5/CapSense_CSD_CSHL.c ****             /* The maximum wasn't found */
1369:Generated_Source\PSoC5/CapSense_CSD_CSHL.c ****             position = 0xFFFFu;
 1112              		.loc 1 1369 0
 1113 003c 4FF6FF70 		movw	r0, #65535
 1114              	.LVL153:
 1115              	.L95:
1370:Generated_Source\PSoC5/CapSense_CSD_CSHL.c **** 
1371:Generated_Source\PSoC5/CapSense_CSD_CSHL.c ****             #if(0u != CapSense_CSD_LINEAR_SLIDERS_POS_FILTERS_MASK)
1372:Generated_Source\PSoC5/CapSense_CSD_CSHL.c ****                 /* Reset the filters */
1373:Generated_Source\PSoC5/CapSense_CSD_CSHL.c ****                 if(0u != (posFiltersMask & CapSense_CSD_ANY_POS_FILTER))
1374:Generated_Source\PSoC5/CapSense_CSD_CSHL.c ****                 {
1375:Generated_Source\PSoC5/CapSense_CSD_CSHL.c ****                     CapSense_CSD_posFiltersData[firstTimeIndex] = 0u;
1376:Generated_Source\PSoC5/CapSense_CSD_CSHL.c ****                 }
1377:Generated_Source\PSoC5/CapSense_CSD_CSHL.c ****             #endif /* (0u != CapSense_CSD_LINEAR_SLIDERS_POS_FILTERS_MASK) */
ARM GAS  C:\Users\aryan\AppData\Local\Temp\ccEOeQjh.s 			page 45


1378:Generated_Source\PSoC5/CapSense_CSD_CSHL.c ****         }
1379:Generated_Source\PSoC5/CapSense_CSD_CSHL.c **** 
1380:Generated_Source\PSoC5/CapSense_CSD_CSHL.c ****         
1381:Generated_Source\PSoC5/CapSense_CSD_CSHL.c ****         return (position);
1382:Generated_Source\PSoC5/CapSense_CSD_CSHL.c ****     }
 1116              		.loc 1 1382 0
 1117 0040 02B0     		add	sp, sp, #8
 1118              		.cfi_def_cfa_offset 16
 1119              		@ sp needed
 1120 0042 70BD     		pop	{r4, r5, r6, pc}
 1121              	.LVL154:
 1122              	.L99:
 1123              		.align	2
 1124              	.L98:
 1125 0044 00000000 		.word	.LANCHOR0
 1126              		.cfi_endproc
 1127              	.LFE13:
 1128              		.size	CapSense_CSD_GetCentroidPos, .-CapSense_CSD_GetCentroidPos
 1129              		.global	CapSense_CSD_centroidMult
 1130              		.global	CapSense_CSD_numberOfSensors
 1131              		.global	CapSense_CSD_rawDataIndex
 1132              		.global	CapSense_CSD_debounceCounter
 1133              		.global	CapSense_CSD_debounce
 1134              		.global	CapSense_CSD_hysteresis
 1135              		.global	CapSense_CSD_noiseThreshold
 1136              		.global	CapSense_CSD_fingerThreshold
 1137              		.comm	CapSense_CSD_lowBaselineResetCnt,7,4
 1138              		.comm	CapSense_CSD_sensorOnMask,1,4
 1139              		.comm	CapSense_CSD_sensorSignal,14,4
 1140              		.comm	CapSense_CSD_sensorBaselineLow,7,4
 1141              		.comm	CapSense_CSD_sensorBaseline,14,4
 1142              		.section	.rodata
 1143              		.align	2
 1144              		.set	.LANCHOR0,. + 0
 1145              		.type	CapSense_CSD_debounce, %object
 1146              		.size	CapSense_CSD_debounce, 3
 1147              	CapSense_CSD_debounce:
 1148 0000 01       		.byte	1
 1149 0001 05       		.byte	5
 1150 0002 05       		.byte	5
 1151 0003 00       		.space	1
 1152              		.type	CapSense_CSD_noiseThreshold, %object
 1153              		.size	CapSense_CSD_noiseThreshold, 6
 1154              	CapSense_CSD_noiseThreshold:
 1155 0004 2A00     		.short	42
 1156 0006 2D00     		.short	45
 1157 0008 2100     		.short	33
 1158 000a 0000     		.space	2
 1159              		.type	CapSense_CSD_fingerThreshold, %object
 1160              		.size	CapSense_CSD_fingerThreshold, 6
 1161              	CapSense_CSD_fingerThreshold:
 1162 000c 5400     		.short	84
 1163 000e 7C00     		.short	124
 1164 0010 4200     		.short	66
 1165 0012 0000     		.space	2
 1166              		.type	CapSense_CSD_hysteresis, %object
 1167              		.size	CapSense_CSD_hysteresis, 6
ARM GAS  C:\Users\aryan\AppData\Local\Temp\ccEOeQjh.s 			page 46


 1168              	CapSense_CSD_hysteresis:
 1169 0014 0000     		.short	0
 1170 0016 1200     		.short	18
 1171 0018 0900     		.short	9
 1172 001a 0000     		.space	2
 1173              		.type	CapSense_CSD_rawDataIndex, %object
 1174              		.size	CapSense_CSD_rawDataIndex, 3
 1175              	CapSense_CSD_rawDataIndex:
 1176 001c 02       		.byte	2
 1177 001d 00       		.byte	0
 1178 001e 01       		.byte	1
 1179 001f 00       		.space	1
 1180              		.type	CapSense_CSD_numberOfSensors, %object
 1181              		.size	CapSense_CSD_numberOfSensors, 3
 1182              	CapSense_CSD_numberOfSensors:
 1183 0020 05       		.byte	5
 1184 0021 01       		.byte	1
 1185 0022 01       		.byte	1
 1186 0023 00       		.space	1
 1187              		.type	CapSense_CSD_centroidMult, %object
 1188              		.size	CapSense_CSD_centroidMult, 2
 1189              	CapSense_CSD_centroidMult:
 1190 0024 0019     		.short	6400
 1191              		.bss
 1192              		.align	2
 1193              		.set	.LANCHOR1,. + 0
 1194              		.type	CapSense_CSD_debounceCounter, %object
 1195              		.size	CapSense_CSD_debounceCounter, 3
 1196              	CapSense_CSD_debounceCounter:
 1197 0000 000000   		.space	3
 1198 0003 00       		.space	1
 1199              		.type	CapSense_CSD_centroid.5259, %object
 1200              		.size	CapSense_CSD_centroid.5259, 6
 1201              	CapSense_CSD_centroid.5259:
 1202 0004 00000000 		.space	6
 1202      0000
 1203              		.text
 1204              	.Letext0:
 1205              		.file 2 "Generated_Source\\PSoC5\\cytypes.h"
 1206              		.file 3 "Generated_Source\\PSoC5\\CapSense_CSD.h"
 1207              		.file 4 "Generated_Source\\PSoC5\\CapSense_CSD_CSHL.h"