ARM GAS  C:\Users\aryan\AppData\Local\Temp\ccEOeQjh.s 			page 1


   1              		.syntax unified
   2              		.cpu cortex-m3
   3              		.fpu softvfp
   4              		.eabi_attribute 20, 1
   5              		.eabi_attribute 21, 1
   6              		.eabi_attribute 23, 3
   7              		.eabi_attribute 24, 1
   8              		.eabi_attribute 25, 1
   9              		.eabi_attribute 26, 1
  10              		.eabi_attribute 30, 1
  11              		.eabi_attribute 34, 1
  12              		.eabi_attribute 18, 4
  13              		.thumb
  14              		.syntax unified
  15              		.file	"CapSense_CSD_CSHL.c"
  16              		.text
  17              	.Ltext0:
  18              		.cfi_sections	.debug_frame
  19              		.section	.text.CapSense_CSD_BaseInit,"ax",%progbits
  20              		.align	2
  21              		.global	CapSense_CSD_BaseInit
  22              		.thumb
  23              		.thumb_func
  24              		.type	CapSense_CSD_BaseInit, %function
  25              	CapSense_CSD_BaseInit:
  26              	.LFB0:
  27              		.file 1 "Generated_Source\\PSoC5\\CapSense_CSD_CSHL.c"
   1:Generated_Source\PSoC5/CapSense_CSD_CSHL.c **** /*******************************************************************************
   2:Generated_Source\PSoC5/CapSense_CSD_CSHL.c **** * File Name: CapSense_CSD_CSHL.c
   3:Generated_Source\PSoC5/CapSense_CSD_CSHL.c **** * Version 3.50
   4:Generated_Source\PSoC5/CapSense_CSD_CSHL.c **** *
   5:Generated_Source\PSoC5/CapSense_CSD_CSHL.c **** * Description:
   6:Generated_Source\PSoC5/CapSense_CSD_CSHL.c **** *  This file provides the source code to the High Level APIs for the CapSesne
   7:Generated_Source\PSoC5/CapSense_CSD_CSHL.c **** *  CSD component.
   8:Generated_Source\PSoC5/CapSense_CSD_CSHL.c **** *
   9:Generated_Source\PSoC5/CapSense_CSD_CSHL.c **** * Note:
  10:Generated_Source\PSoC5/CapSense_CSD_CSHL.c **** *
  11:Generated_Source\PSoC5/CapSense_CSD_CSHL.c **** ********************************************************************************
  12:Generated_Source\PSoC5/CapSense_CSD_CSHL.c **** * Copyright 2008-2013, Cypress Semiconductor Corporation.  All rights reserved.
  13:Generated_Source\PSoC5/CapSense_CSD_CSHL.c **** * You may use this file only in accordance with the license, terms, conditions,
  14:Generated_Source\PSoC5/CapSense_CSD_CSHL.c **** * disclaimers, and limitations in the end user license agreement accompanying
  15:Generated_Source\PSoC5/CapSense_CSD_CSHL.c **** * the software package with which this file was provided.
  16:Generated_Source\PSoC5/CapSense_CSD_CSHL.c **** *******************************************************************************/
  17:Generated_Source\PSoC5/CapSense_CSD_CSHL.c **** 
  18:Generated_Source\PSoC5/CapSense_CSD_CSHL.c **** #include "CapSense_CSD_CSHL.h"
  19:Generated_Source\PSoC5/CapSense_CSD_CSHL.c **** 
  20:Generated_Source\PSoC5/CapSense_CSD_CSHL.c **** /* Storage of filters data */
  21:Generated_Source\PSoC5/CapSense_CSD_CSHL.c **** #if ( (CapSense_CSD_RAW_FILTER_MASK & CapSense_CSD_MEDIAN_FILTER) | \
  22:Generated_Source\PSoC5/CapSense_CSD_CSHL.c ****       (CapSense_CSD_RAW_FILTER_MASK & CapSense_CSD_AVERAGING_FILTER) )
  23:Generated_Source\PSoC5/CapSense_CSD_CSHL.c **** 
  24:Generated_Source\PSoC5/CapSense_CSD_CSHL.c ****     uint16 CapSense_CSD_rawFilterData1[CapSense_CSD_TOTAL_SENSOR_COUNT];
  25:Generated_Source\PSoC5/CapSense_CSD_CSHL.c ****     uint16 CapSense_CSD_rawFilterData2[CapSense_CSD_TOTAL_SENSOR_COUNT];
  26:Generated_Source\PSoC5/CapSense_CSD_CSHL.c **** 
  27:Generated_Source\PSoC5/CapSense_CSD_CSHL.c **** #elif ( (CapSense_CSD_RAW_FILTER_MASK & CapSense_CSD_IIR2_FILTER)   | \
  28:Generated_Source\PSoC5/CapSense_CSD_CSHL.c ****         (CapSense_CSD_RAW_FILTER_MASK & CapSense_CSD_IIR4_FILTER)   | \
  29:Generated_Source\PSoC5/CapSense_CSD_CSHL.c ****         (CapSense_CSD_RAW_FILTER_MASK & CapSense_CSD_JITTER_FILTER) | \
  30:Generated_Source\PSoC5/CapSense_CSD_CSHL.c ****         (CapSense_CSD_RAW_FILTER_MASK & CapSense_CSD_IIR8_FILTER)   | \
ARM GAS  C:\Users\aryan\AppData\Local\Temp\ccEOeQjh.s 			page 2


  31:Generated_Source\PSoC5/CapSense_CSD_CSHL.c ****         (CapSense_CSD_RAW_FILTER_MASK & CapSense_CSD_IIR16_FILTER) )
  32:Generated_Source\PSoC5/CapSense_CSD_CSHL.c ****         
  33:Generated_Source\PSoC5/CapSense_CSD_CSHL.c ****     uint16 CapSense_CSD_rawFilterData1[CapSense_CSD_TOTAL_SENSOR_COUNT];
  34:Generated_Source\PSoC5/CapSense_CSD_CSHL.c **** 
  35:Generated_Source\PSoC5/CapSense_CSD_CSHL.c **** #else
  36:Generated_Source\PSoC5/CapSense_CSD_CSHL.c ****     /* No Raw filters */
  37:Generated_Source\PSoC5/CapSense_CSD_CSHL.c **** #endif  /* ( (CapSense_CSD_RAW_FILTER_MASK & CapSense_CSD_MEDIAN_FILTER) || \
  38:Generated_Source\PSoC5/CapSense_CSD_CSHL.c ****         *    (CapSense_CSD_RAW_FILTER_MASK & CapSense_CSD_AVERAGING_FILTER) )
  39:Generated_Source\PSoC5/CapSense_CSD_CSHL.c ****         */
  40:Generated_Source\PSoC5/CapSense_CSD_CSHL.c **** 
  41:Generated_Source\PSoC5/CapSense_CSD_CSHL.c **** uint16 CapSense_CSD_sensorBaseline[CapSense_CSD_TOTAL_SENSOR_COUNT];
  42:Generated_Source\PSoC5/CapSense_CSD_CSHL.c **** uint8 CapSense_CSD_sensorBaselineLow[CapSense_CSD_TOTAL_SENSOR_COUNT];
  43:Generated_Source\PSoC5/CapSense_CSD_CSHL.c **** uint16 CapSense_CSD_sensorSignal[CapSense_CSD_TOTAL_SENSOR_COUNT];
  44:Generated_Source\PSoC5/CapSense_CSD_CSHL.c **** uint8 CapSense_CSD_sensorOnMask[(((CapSense_CSD_TOTAL_SENSOR_COUNT - 1u) / 8u) + 1u)];
  45:Generated_Source\PSoC5/CapSense_CSD_CSHL.c **** 
  46:Generated_Source\PSoC5/CapSense_CSD_CSHL.c **** uint8 CapSense_CSD_lowBaselineResetCnt[CapSense_CSD_TOTAL_SENSOR_COUNT];
  47:Generated_Source\PSoC5/CapSense_CSD_CSHL.c **** 
  48:Generated_Source\PSoC5/CapSense_CSD_CSHL.c **** const uint16 CYCODE CapSense_CSD_fingerThreshold[] = {
  49:Generated_Source\PSoC5/CapSense_CSD_CSHL.c ****     84u, 124u, 66u, 
  50:Generated_Source\PSoC5/CapSense_CSD_CSHL.c **** };
  51:Generated_Source\PSoC5/CapSense_CSD_CSHL.c **** 
  52:Generated_Source\PSoC5/CapSense_CSD_CSHL.c **** const uint16 CYCODE CapSense_CSD_noiseThreshold[] = {
  53:Generated_Source\PSoC5/CapSense_CSD_CSHL.c ****     42u, 45u, 33u, 
  54:Generated_Source\PSoC5/CapSense_CSD_CSHL.c **** };
  55:Generated_Source\PSoC5/CapSense_CSD_CSHL.c **** 
  56:Generated_Source\PSoC5/CapSense_CSD_CSHL.c **** const uint16 CYCODE CapSense_CSD_hysteresis[] = {
  57:Generated_Source\PSoC5/CapSense_CSD_CSHL.c ****     0u, 18u, 9u, 
  58:Generated_Source\PSoC5/CapSense_CSD_CSHL.c **** };
  59:Generated_Source\PSoC5/CapSense_CSD_CSHL.c **** 
  60:Generated_Source\PSoC5/CapSense_CSD_CSHL.c **** const uint8 CYCODE CapSense_CSD_debounce[] = {
  61:Generated_Source\PSoC5/CapSense_CSD_CSHL.c ****     1u, 5u, 5u, 
  62:Generated_Source\PSoC5/CapSense_CSD_CSHL.c **** };
  63:Generated_Source\PSoC5/CapSense_CSD_CSHL.c **** 
  64:Generated_Source\PSoC5/CapSense_CSD_CSHL.c **** uint8 CapSense_CSD_debounceCounter[] = {
  65:Generated_Source\PSoC5/CapSense_CSD_CSHL.c ****     0u, 0u, 0u, 
  66:Generated_Source\PSoC5/CapSense_CSD_CSHL.c **** };
  67:Generated_Source\PSoC5/CapSense_CSD_CSHL.c **** 
  68:Generated_Source\PSoC5/CapSense_CSD_CSHL.c **** const uint8 CYCODE CapSense_CSD_rawDataIndex[] = {
  69:Generated_Source\PSoC5/CapSense_CSD_CSHL.c ****     2u, /* LinearSlider0__LS */
  70:Generated_Source\PSoC5/CapSense_CSD_CSHL.c ****     0u, /* Button0__BTN */
  71:Generated_Source\PSoC5/CapSense_CSD_CSHL.c ****     1u, /* Button1__BTN */
  72:Generated_Source\PSoC5/CapSense_CSD_CSHL.c **** 
  73:Generated_Source\PSoC5/CapSense_CSD_CSHL.c **** };
  74:Generated_Source\PSoC5/CapSense_CSD_CSHL.c **** 
  75:Generated_Source\PSoC5/CapSense_CSD_CSHL.c **** const uint8 CYCODE CapSense_CSD_numberOfSensors[] = {
  76:Generated_Source\PSoC5/CapSense_CSD_CSHL.c ****     5u, /* LinearSlider0__LS */
  77:Generated_Source\PSoC5/CapSense_CSD_CSHL.c ****     1u, /* Button0__BTN */
  78:Generated_Source\PSoC5/CapSense_CSD_CSHL.c ****     1u, /* Button1__BTN */
  79:Generated_Source\PSoC5/CapSense_CSD_CSHL.c **** 
  80:Generated_Source\PSoC5/CapSense_CSD_CSHL.c **** };
  81:Generated_Source\PSoC5/CapSense_CSD_CSHL.c **** 
  82:Generated_Source\PSoC5/CapSense_CSD_CSHL.c **** const uint16 CYCODE CapSense_CSD_centroidMult[] = {
  83:Generated_Source\PSoC5/CapSense_CSD_CSHL.c ****     6400u, 
  84:Generated_Source\PSoC5/CapSense_CSD_CSHL.c **** };
  85:Generated_Source\PSoC5/CapSense_CSD_CSHL.c **** 
  86:Generated_Source\PSoC5/CapSense_CSD_CSHL.c **** 
  87:Generated_Source\PSoC5/CapSense_CSD_CSHL.c **** 
ARM GAS  C:\Users\aryan\AppData\Local\Temp\ccEOeQjh.s 			page 3


  88:Generated_Source\PSoC5/CapSense_CSD_CSHL.c **** 
  89:Generated_Source\PSoC5/CapSense_CSD_CSHL.c **** /*******************************************************************************
  90:Generated_Source\PSoC5/CapSense_CSD_CSHL.c **** * Function Name: CapSense_CSD_BaseInit
  91:Generated_Source\PSoC5/CapSense_CSD_CSHL.c **** ********************************************************************************
  92:Generated_Source\PSoC5/CapSense_CSD_CSHL.c **** *
  93:Generated_Source\PSoC5/CapSense_CSD_CSHL.c **** * Summary:
  94:Generated_Source\PSoC5/CapSense_CSD_CSHL.c **** *  Loads the CapSense_CSD_sensorBaseline[sensor] array element with an 
  95:Generated_Source\PSoC5/CapSense_CSD_CSHL.c **** *  initial value which is equal to raw count value. 
  96:Generated_Source\PSoC5/CapSense_CSD_CSHL.c **** *  Resets to zero CapSense_CSD_sensorBaselineLow[sensor] and 
  97:Generated_Source\PSoC5/CapSense_CSD_CSHL.c **** *  CapSense_CSD_sensorSignal[sensor] array element.
  98:Generated_Source\PSoC5/CapSense_CSD_CSHL.c **** *  Loads CapSense_CSD_debounceCounter[sensor] array element with initial 
  99:Generated_Source\PSoC5/CapSense_CSD_CSHL.c **** *  value equal CapSense_CSD_debounce[].
 100:Generated_Source\PSoC5/CapSense_CSD_CSHL.c **** *  Loads the CapSense_CSD_rawFilterData2[sensor] and 
 101:Generated_Source\PSoC5/CapSense_CSD_CSHL.c **** *  CapSense_CSD_rawFilterData2[sensor] array element with an 
 102:Generated_Source\PSoC5/CapSense_CSD_CSHL.c **** *  initial value which is equal raw count value if raw data filter is enabled.
 103:Generated_Source\PSoC5/CapSense_CSD_CSHL.c **** *
 104:Generated_Source\PSoC5/CapSense_CSD_CSHL.c **** * Parameters:
 105:Generated_Source\PSoC5/CapSense_CSD_CSHL.c **** *  sensor:  Sensor number.
 106:Generated_Source\PSoC5/CapSense_CSD_CSHL.c **** *
 107:Generated_Source\PSoC5/CapSense_CSD_CSHL.c **** * Return:
 108:Generated_Source\PSoC5/CapSense_CSD_CSHL.c **** *  None
 109:Generated_Source\PSoC5/CapSense_CSD_CSHL.c **** *
 110:Generated_Source\PSoC5/CapSense_CSD_CSHL.c **** * Global Variables:
 111:Generated_Source\PSoC5/CapSense_CSD_CSHL.c **** *  CapSense_CSD_sensorBaseline[]    - used to store baseline value.
 112:Generated_Source\PSoC5/CapSense_CSD_CSHL.c **** *  CapSense_CSD_sensorBaselineLow[] - used to store fraction byte of 
 113:Generated_Source\PSoC5/CapSense_CSD_CSHL.c **** *  baseline value.
 114:Generated_Source\PSoC5/CapSense_CSD_CSHL.c **** *  CapSense_CSD_sensorSignal[]      - used to store diffence between 
 115:Generated_Source\PSoC5/CapSense_CSD_CSHL.c **** *  current value of raw data and previous value of baseline.
 116:Generated_Source\PSoC5/CapSense_CSD_CSHL.c **** *  CapSense_CSD_debounceCounter[]   - used to store current debounce 
 117:Generated_Source\PSoC5/CapSense_CSD_CSHL.c **** *  counter of sensor. Widget which has this parameter are buttons, matrix 
 118:Generated_Source\PSoC5/CapSense_CSD_CSHL.c **** *  buttons, proximity, guard. All other widgets haven't debounce parameter
 119:Generated_Source\PSoC5/CapSense_CSD_CSHL.c **** *  and use the last element of this array with value 0 (it means no debounce).
 120:Generated_Source\PSoC5/CapSense_CSD_CSHL.c **** *  CapSense_CSD_rawFilterData1[]    - used to store previous sample of 
 121:Generated_Source\PSoC5/CapSense_CSD_CSHL.c **** *  any enabled raw data filter.
 122:Generated_Source\PSoC5/CapSense_CSD_CSHL.c **** *  CapSense_CSD_rawFilterData2[]    - used to store before previous sample
 123:Generated_Source\PSoC5/CapSense_CSD_CSHL.c **** *  of enabled raw data filter. Only required for median or average filters.
 124:Generated_Source\PSoC5/CapSense_CSD_CSHL.c **** *
 125:Generated_Source\PSoC5/CapSense_CSD_CSHL.c **** * Reentrant:
 126:Generated_Source\PSoC5/CapSense_CSD_CSHL.c **** *  No
 127:Generated_Source\PSoC5/CapSense_CSD_CSHL.c **** *
 128:Generated_Source\PSoC5/CapSense_CSD_CSHL.c **** *******************************************************************************/
 129:Generated_Source\PSoC5/CapSense_CSD_CSHL.c **** void CapSense_CSD_BaseInit(uint8 sensor) 
 130:Generated_Source\PSoC5/CapSense_CSD_CSHL.c **** {
  28              		.loc 1 130 0
  29              		.cfi_startproc
  30              		@ args = 0, pretend = 0, frame = 0
  31              		@ frame_needed = 0, uses_anonymous_args = 0
  32              		@ link register save eliminated.
  33              	.LVL0:
 131:Generated_Source\PSoC5/CapSense_CSD_CSHL.c ****     #if ((CapSense_CSD_TOTAL_BUTTONS_COUNT) || (CapSense_CSD_TOTAL_MATRIX_BUTTONS_COUNT) || \
 132:Generated_Source\PSoC5/CapSense_CSD_CSHL.c ****          (CapSense_CSD_TOTAL_GENERICS_COUNT))
 133:Generated_Source\PSoC5/CapSense_CSD_CSHL.c ****         uint8 widget = CapSense_CSD_widgetNumber[sensor];
  34              		.loc 1 133 0
  35 0000 0A4B     		ldr	r3, .L3
  36 0002 1B5C     		ldrb	r3, [r3, r0]	@ zero_extendqisi2
  37              	.LVL1:
 134:Generated_Source\PSoC5/CapSense_CSD_CSHL.c ****     #endif /* ((CapSense_CSD_TOTAL_MATRIX_BUTTONS_COUNT) || (CapSense_CSD_TOTAL_MATRIX_BUTTONS_COUN
ARM GAS  C:\Users\aryan\AppData\Local\Temp\ccEOeQjh.s 			page 4


 135:Generated_Source\PSoC5/CapSense_CSD_CSHL.c ****     
 136:Generated_Source\PSoC5/CapSense_CSD_CSHL.c ****     #if (CapSense_CSD_TOTAL_MATRIX_BUTTONS_COUNT)
 137:Generated_Source\PSoC5/CapSense_CSD_CSHL.c ****         uint8 debounceIndex;
 138:Generated_Source\PSoC5/CapSense_CSD_CSHL.c ****     #endif  /* (CapSense_CSD_TOTAL_MATRIX_BUTTONS_COUNT) */
 139:Generated_Source\PSoC5/CapSense_CSD_CSHL.c ****     
 140:Generated_Source\PSoC5/CapSense_CSD_CSHL.c ****     #if (CapSense_CSD_TOTAL_GENERICS_COUNT)
 141:Generated_Source\PSoC5/CapSense_CSD_CSHL.c ****         /* Exclude generic widget */
 142:Generated_Source\PSoC5/CapSense_CSD_CSHL.c ****         if(widget < CapSense_CSD_END_OF_WIDGETS_INDEX)
 143:Generated_Source\PSoC5/CapSense_CSD_CSHL.c ****         {
 144:Generated_Source\PSoC5/CapSense_CSD_CSHL.c ****     #endif  /* CapSense_CSD_TOTAL_GENERICS_COUNT */
 145:Generated_Source\PSoC5/CapSense_CSD_CSHL.c ****     
 146:Generated_Source\PSoC5/CapSense_CSD_CSHL.c ****     /* Initialize Baseline */
 147:Generated_Source\PSoC5/CapSense_CSD_CSHL.c ****     CapSense_CSD_sensorBaseline[sensor] = CapSense_CSD_sensorRaw[sensor];
  38              		.loc 1 147 0
  39 0004 0A4A     		ldr	r2, .L3+4
  40 0006 32F81010 		ldrh	r1, [r2, r0, lsl #1]
  41 000a 0A4A     		ldr	r2, .L3+8
  42 000c 22F81010 		strh	r1, [r2, r0, lsl #1]	@ movhi
 148:Generated_Source\PSoC5/CapSense_CSD_CSHL.c ****     CapSense_CSD_sensorBaselineLow[sensor] = 0u;
  43              		.loc 1 148 0
  44 0010 0022     		movs	r2, #0
  45 0012 0949     		ldr	r1, .L3+12
  46 0014 0A54     		strb	r2, [r1, r0]
 149:Generated_Source\PSoC5/CapSense_CSD_CSHL.c ****     CapSense_CSD_sensorSignal[sensor] = 0u;
  47              		.loc 1 149 0
  48 0016 0949     		ldr	r1, .L3+16
  49 0018 21F81020 		strh	r2, [r1, r0, lsl #1]	@ movhi
 150:Generated_Source\PSoC5/CapSense_CSD_CSHL.c ****         
 151:Generated_Source\PSoC5/CapSense_CSD_CSHL.c ****     if(widget > CapSense_CSD_END_OF_TOUCH_PAD_INDEX)
  50              		.loc 1 151 0
  51 001c 23B1     		cbz	r3, .L1
 152:Generated_Source\PSoC5/CapSense_CSD_CSHL.c ****     {
 153:Generated_Source\PSoC5/CapSense_CSD_CSHL.c ****         CapSense_CSD_debounceCounter[widget - (CapSense_CSD_END_OF_TOUCH_PAD_INDEX + 1)] =  CapSens
  52              		.loc 1 153 0
  53 001e 5A1E     		subs	r2, r3, #1
  54 0020 0749     		ldr	r1, .L3+20
  55 0022 C95C     		ldrb	r1, [r1, r3]	@ zero_extendqisi2
  56 0024 074B     		ldr	r3, .L3+24
  57              	.LVL2:
  58 0026 9954     		strb	r1, [r3, r2]
  59              	.LVL3:
  60              	.L1:
  61 0028 7047     		bx	lr
  62              	.L4:
  63 002a 00BF     		.align	2
  64              	.L3:
  65 002c 00000000 		.word	CapSense_CSD_widgetNumber
  66 0030 00000000 		.word	CapSense_CSD_sensorRaw
  67 0034 00000000 		.word	CapSense_CSD_sensorBaseline
  68 0038 00000000 		.word	CapSense_CSD_sensorBaselineLow
  69 003c 00000000 		.word	CapSense_CSD_sensorSignal
  70 0040 00000000 		.word	.LANCHOR0
  71 0044 00000000 		.word	.LANCHOR1
  72              		.cfi_endproc
  73              	.LFE0:
  74              		.size	CapSense_CSD_BaseInit, .-CapSense_CSD_BaseInit
  75              		.section	.text.CapSense_CSD_InitializeSensorBaseline,"ax",%progbits
ARM GAS  C:\Users\aryan\AppData\Local\Temp\ccEOeQjh.s 			page 5


  76              		.align	2
  77              		.global	CapSense_CSD_InitializeSensorBaseline
  78              		.thumb
  79              		.thumb_func
  80              		.type	CapSense_CSD_InitializeSensorBaseline, %function
  81              	CapSense_CSD_InitializeSensorBaseline:
  82              	.LFB1:
 154:Generated_Source\PSoC5/CapSense_CSD_CSHL.c ****     }
 155:Generated_Source\PSoC5/CapSense_CSD_CSHL.c **** 
 156:Generated_Source\PSoC5/CapSense_CSD_CSHL.c ****     
 157:Generated_Source\PSoC5/CapSense_CSD_CSHL.c ****     #if ((CapSense_CSD_RAW_FILTER_MASK & CapSense_CSD_MEDIAN_FILTER) |\
 158:Generated_Source\PSoC5/CapSense_CSD_CSHL.c ****          (CapSense_CSD_RAW_FILTER_MASK & CapSense_CSD_AVERAGING_FILTER))
 159:Generated_Source\PSoC5/CapSense_CSD_CSHL.c **** 
 160:Generated_Source\PSoC5/CapSense_CSD_CSHL.c ****         CapSense_CSD_rawFilterData1[sensor] = CapSense_CSD_sensorRaw[sensor];
 161:Generated_Source\PSoC5/CapSense_CSD_CSHL.c ****         CapSense_CSD_rawFilterData2[sensor] = CapSense_CSD_sensorRaw[sensor];
 162:Generated_Source\PSoC5/CapSense_CSD_CSHL.c ****     
 163:Generated_Source\PSoC5/CapSense_CSD_CSHL.c ****     #elif ((CapSense_CSD_RAW_FILTER_MASK & CapSense_CSD_IIR2_FILTER) |\
 164:Generated_Source\PSoC5/CapSense_CSD_CSHL.c ****            (CapSense_CSD_RAW_FILTER_MASK & CapSense_CSD_IIR4_FILTER) |\
 165:Generated_Source\PSoC5/CapSense_CSD_CSHL.c ****            (CapSense_CSD_RAW_FILTER_MASK & CapSense_CSD_JITTER_FILTER) |\
 166:Generated_Source\PSoC5/CapSense_CSD_CSHL.c ****            (CapSense_CSD_RAW_FILTER_MASK & CapSense_CSD_IIR8_FILTER) |\
 167:Generated_Source\PSoC5/CapSense_CSD_CSHL.c ****            (CapSense_CSD_RAW_FILTER_MASK & CapSense_CSD_IIR16_FILTER))
 168:Generated_Source\PSoC5/CapSense_CSD_CSHL.c ****             
 169:Generated_Source\PSoC5/CapSense_CSD_CSHL.c ****         CapSense_CSD_rawFilterData1[sensor] = CapSense_CSD_sensorRaw[sensor];
 170:Generated_Source\PSoC5/CapSense_CSD_CSHL.c ****     
 171:Generated_Source\PSoC5/CapSense_CSD_CSHL.c ****     #else
 172:Generated_Source\PSoC5/CapSense_CSD_CSHL.c ****         /* No Raw filters */
 173:Generated_Source\PSoC5/CapSense_CSD_CSHL.c ****     #endif  /* ((CapSense_CSD_RAW_FILTER_MASK & CapSense_CSD_MEDIAN_FILTER) | \
 174:Generated_Source\PSoC5/CapSense_CSD_CSHL.c ****             *   (CapSense_CSD_RAW_FILTER_MASK & CapSense_CSD_AVERAGING_FILTER))
 175:Generated_Source\PSoC5/CapSense_CSD_CSHL.c ****             */
 176:Generated_Source\PSoC5/CapSense_CSD_CSHL.c ****     
 177:Generated_Source\PSoC5/CapSense_CSD_CSHL.c ****     #if (CapSense_CSD_TOTAL_GENERICS_COUNT)
 178:Generated_Source\PSoC5/CapSense_CSD_CSHL.c ****         /* Exclude generic widget */
 179:Generated_Source\PSoC5/CapSense_CSD_CSHL.c ****         }
 180:Generated_Source\PSoC5/CapSense_CSD_CSHL.c ****     #endif  /* CapSense_CSD_TOTAL_GENERICS_COUNT */
 181:Generated_Source\PSoC5/CapSense_CSD_CSHL.c **** }
 182:Generated_Source\PSoC5/CapSense_CSD_CSHL.c **** 
 183:Generated_Source\PSoC5/CapSense_CSD_CSHL.c **** 
 184:Generated_Source\PSoC5/CapSense_CSD_CSHL.c **** /*******************************************************************************
 185:Generated_Source\PSoC5/CapSense_CSD_CSHL.c **** * Function Name: CapSense_CSD_InitializeSensorBaseline
 186:Generated_Source\PSoC5/CapSense_CSD_CSHL.c **** ********************************************************************************
 187:Generated_Source\PSoC5/CapSense_CSD_CSHL.c **** *
 188:Generated_Source\PSoC5/CapSense_CSD_CSHL.c **** * Summary:
 189:Generated_Source\PSoC5/CapSense_CSD_CSHL.c **** *  Loads the CapSense_CSD_sensorBaseline[sensor] array element with an 
 190:Generated_Source\PSoC5/CapSense_CSD_CSHL.c **** *  initial value by scanning the selected sensor (one channel design) or pair 
 191:Generated_Source\PSoC5/CapSense_CSD_CSHL.c **** *  of sensors (two channels designs). The raw count value is copied into the 
 192:Generated_Source\PSoC5/CapSense_CSD_CSHL.c **** *  baseline array for each sensor. The raw data filters are initialized if 
 193:Generated_Source\PSoC5/CapSense_CSD_CSHL.c **** *  enabled.
 194:Generated_Source\PSoC5/CapSense_CSD_CSHL.c **** *
 195:Generated_Source\PSoC5/CapSense_CSD_CSHL.c **** * Parameters:
 196:Generated_Source\PSoC5/CapSense_CSD_CSHL.c **** *  sensor:  Sensor number.
 197:Generated_Source\PSoC5/CapSense_CSD_CSHL.c **** *
 198:Generated_Source\PSoC5/CapSense_CSD_CSHL.c **** * Return:
 199:Generated_Source\PSoC5/CapSense_CSD_CSHL.c **** *  None
 200:Generated_Source\PSoC5/CapSense_CSD_CSHL.c **** *
 201:Generated_Source\PSoC5/CapSense_CSD_CSHL.c **** * Reentrant:
 202:Generated_Source\PSoC5/CapSense_CSD_CSHL.c **** *  No
 203:Generated_Source\PSoC5/CapSense_CSD_CSHL.c **** *
ARM GAS  C:\Users\aryan\AppData\Local\Temp\ccEOeQjh.s 			page 6


 204:Generated_Source\PSoC5/CapSense_CSD_CSHL.c **** *******************************************************************************/
 205:Generated_Source\PSoC5/CapSense_CSD_CSHL.c **** void CapSense_CSD_InitializeSensorBaseline(uint8 sensor)
 206:Generated_Source\PSoC5/CapSense_CSD_CSHL.c ****                           
 207:Generated_Source\PSoC5/CapSense_CSD_CSHL.c **** {
  83              		.loc 1 207 0
  84              		.cfi_startproc
  85              		@ args = 0, pretend = 0, frame = 0
  86              		@ frame_needed = 0, uses_anonymous_args = 0
  87              	.LVL4:
  88 0000 10B5     		push	{r4, lr}
  89              		.cfi_def_cfa_offset 8
  90              		.cfi_offset 4, -8
  91              		.cfi_offset 14, -4
  92 0002 0446     		mov	r4, r0
 208:Generated_Source\PSoC5/CapSense_CSD_CSHL.c ****     /* Scan sensor */
 209:Generated_Source\PSoC5/CapSense_CSD_CSHL.c ****     CapSense_CSD_ScanSensor(sensor);
  93              		.loc 1 209 0
  94 0004 FFF7FEFF 		bl	CapSense_CSD_ScanSensor
  95              	.LVL5:
  96              	.L6:
 210:Generated_Source\PSoC5/CapSense_CSD_CSHL.c ****     while(CapSense_CSD_IsBusy() != 0u)
  97              		.loc 1 210 0 discriminator 1
  98 0008 FFF7FEFF 		bl	CapSense_CSD_IsBusy
  99              	.LVL6:
 100 000c 0028     		cmp	r0, #0
 101 000e FBD1     		bne	.L6
 211:Generated_Source\PSoC5/CapSense_CSD_CSHL.c ****     {
 212:Generated_Source\PSoC5/CapSense_CSD_CSHL.c ****         /* Wait while busy */
 213:Generated_Source\PSoC5/CapSense_CSD_CSHL.c ****     }
 214:Generated_Source\PSoC5/CapSense_CSD_CSHL.c ****     
 215:Generated_Source\PSoC5/CapSense_CSD_CSHL.c ****     #if (CapSense_CSD_DESIGN_TYPE == CapSense_CSD_ONE_CHANNEL_DESIGN)
 216:Generated_Source\PSoC5/CapSense_CSD_CSHL.c ****         /* Initialize Baseline, Signal and debounce counters */       
 217:Generated_Source\PSoC5/CapSense_CSD_CSHL.c ****         CapSense_CSD_BaseInit(sensor);
 102              		.loc 1 217 0
 103 0010 2046     		mov	r0, r4
 104 0012 FFF7FEFF 		bl	CapSense_CSD_BaseInit
 105              	.LVL7:
 106 0016 10BD     		pop	{r4, pc}
 107              		.cfi_endproc
 108              	.LFE1:
 109              		.size	CapSense_CSD_InitializeSensorBaseline, .-CapSense_CSD_InitializeSensorBaseline
 110              		.section	.text.CapSense_CSD_InitializeAllBaselines,"ax",%progbits
 111              		.align	2
 112              		.global	CapSense_CSD_InitializeAllBaselines
 113              		.thumb
 114              		.thumb_func
 115              		.type	CapSense_CSD_InitializeAllBaselines, %function
 116              	CapSense_CSD_InitializeAllBaselines:
 117              	.LFB2:
 218:Generated_Source\PSoC5/CapSense_CSD_CSHL.c ****         
 219:Generated_Source\PSoC5/CapSense_CSD_CSHL.c ****     #else
 220:Generated_Source\PSoC5/CapSense_CSD_CSHL.c ****     
 221:Generated_Source\PSoC5/CapSense_CSD_CSHL.c ****         if(sensor < CapSense_CSD_TOTAL_SENSOR_COUNT__CH0)
 222:Generated_Source\PSoC5/CapSense_CSD_CSHL.c ****         {
 223:Generated_Source\PSoC5/CapSense_CSD_CSHL.c ****             /* Initialize Baseline, Signal and debounce counters */ 
 224:Generated_Source\PSoC5/CapSense_CSD_CSHL.c ****             CapSense_CSD_BaseInit(sensor);
 225:Generated_Source\PSoC5/CapSense_CSD_CSHL.c ****         }
ARM GAS  C:\Users\aryan\AppData\Local\Temp\ccEOeQjh.s 			page 7


 226:Generated_Source\PSoC5/CapSense_CSD_CSHL.c ****         
 227:Generated_Source\PSoC5/CapSense_CSD_CSHL.c ****         if(sensor < CapSense_CSD_TOTAL_SENSOR_COUNT__CH1)
 228:Generated_Source\PSoC5/CapSense_CSD_CSHL.c ****         {
 229:Generated_Source\PSoC5/CapSense_CSD_CSHL.c ****             /* Initialize Baseline, Signal and debounce counters */
 230:Generated_Source\PSoC5/CapSense_CSD_CSHL.c ****             CapSense_CSD_BaseInit(sensor + CapSense_CSD_TOTAL_SENSOR_COUNT__CH0);
 231:Generated_Source\PSoC5/CapSense_CSD_CSHL.c ****         }
 232:Generated_Source\PSoC5/CapSense_CSD_CSHL.c ****     
 233:Generated_Source\PSoC5/CapSense_CSD_CSHL.c ****     #endif  /* (CapSense_CSD_DESIGN_TYPE == CapSense_CSD_ONE_CHANNEL_DESIGN) */
 234:Generated_Source\PSoC5/CapSense_CSD_CSHL.c **** }
 235:Generated_Source\PSoC5/CapSense_CSD_CSHL.c **** 
 236:Generated_Source\PSoC5/CapSense_CSD_CSHL.c **** 
 237:Generated_Source\PSoC5/CapSense_CSD_CSHL.c **** /*******************************************************************************
 238:Generated_Source\PSoC5/CapSense_CSD_CSHL.c **** * Function Name: CapSense_CSD_InitializeAllBaselines
 239:Generated_Source\PSoC5/CapSense_CSD_CSHL.c **** ********************************************************************************
 240:Generated_Source\PSoC5/CapSense_CSD_CSHL.c **** *
 241:Generated_Source\PSoC5/CapSense_CSD_CSHL.c **** * Summary:
 242:Generated_Source\PSoC5/CapSense_CSD_CSHL.c **** *  Uses the CapSense_CSD_InitializeSensorBaseline function to loads the 
 243:Generated_Source\PSoC5/CapSense_CSD_CSHL.c **** *  CapSense_CSD_sensorBaseline[] array with an initial values by scanning 
 244:Generated_Source\PSoC5/CapSense_CSD_CSHL.c **** *  all sensors. The raw count values are copied into the baseline array for 
 245:Generated_Source\PSoC5/CapSense_CSD_CSHL.c **** *  all sensors. The raw data filters are initialized if enabled.
 246:Generated_Source\PSoC5/CapSense_CSD_CSHL.c **** *
 247:Generated_Source\PSoC5/CapSense_CSD_CSHL.c **** * Parameters:
 248:Generated_Source\PSoC5/CapSense_CSD_CSHL.c **** *  None
 249:Generated_Source\PSoC5/CapSense_CSD_CSHL.c **** *
 250:Generated_Source\PSoC5/CapSense_CSD_CSHL.c **** * Return:
 251:Generated_Source\PSoC5/CapSense_CSD_CSHL.c **** *  None
 252:Generated_Source\PSoC5/CapSense_CSD_CSHL.c **** *
 253:Generated_Source\PSoC5/CapSense_CSD_CSHL.c **** * Reentrant:
 254:Generated_Source\PSoC5/CapSense_CSD_CSHL.c **** *  No
 255:Generated_Source\PSoC5/CapSense_CSD_CSHL.c **** *
 256:Generated_Source\PSoC5/CapSense_CSD_CSHL.c **** *******************************************************************************/
 257:Generated_Source\PSoC5/CapSense_CSD_CSHL.c **** void CapSense_CSD_InitializeAllBaselines(void)
 258:Generated_Source\PSoC5/CapSense_CSD_CSHL.c ****                           
 259:Generated_Source\PSoC5/CapSense_CSD_CSHL.c **** {
 118              		.loc 1 259 0
 119              		.cfi_startproc
 120              		@ args = 0, pretend = 0, frame = 0
 121              		@ frame_needed = 0, uses_anonymous_args = 0
 122 0000 10B5     		push	{r4, lr}
 123              		.cfi_def_cfa_offset 8
 124              		.cfi_offset 4, -8
 125              		.cfi_offset 14, -4
 126              	.LVL8:
 260:Generated_Source\PSoC5/CapSense_CSD_CSHL.c ****     uint8 i;
 261:Generated_Source\PSoC5/CapSense_CSD_CSHL.c ****     
 262:Generated_Source\PSoC5/CapSense_CSD_CSHL.c ****     /* The baseline initialize by sensor of sensor pair */
 263:Generated_Source\PSoC5/CapSense_CSD_CSHL.c ****     for(i = 0u; i < CapSense_CSD_TOTAL_SCANSLOT_COUNT; i++)
 127              		.loc 1 263 0
 128 0002 0024     		movs	r4, #0
 129 0004 04E0     		b	.L9
 130              	.LVL9:
 131              	.L10:
 264:Generated_Source\PSoC5/CapSense_CSD_CSHL.c ****     {
 265:Generated_Source\PSoC5/CapSense_CSD_CSHL.c ****         CapSense_CSD_InitializeSensorBaseline(i);
 132              		.loc 1 265 0 discriminator 3
 133 0006 2046     		mov	r0, r4
 134 0008 FFF7FEFF 		bl	CapSense_CSD_InitializeSensorBaseline
ARM GAS  C:\Users\aryan\AppData\Local\Temp\ccEOeQjh.s 			page 8


 135              	.LVL10:
 263:Generated_Source\PSoC5/CapSense_CSD_CSHL.c ****     {
 136              		.loc 1 263 0 discriminator 3
 137 000c 0134     		adds	r4, r4, #1
 138              	.LVL11:
 139 000e E4B2     		uxtb	r4, r4
 140              	.LVL12:
 141              	.L9:
 263:Generated_Source\PSoC5/CapSense_CSD_CSHL.c ****     {
 142              		.loc 1 263 0 is_stmt 0 discriminator 1
 143 0010 062C     		cmp	r4, #6
 144 0012 F8D9     		bls	.L10
 266:Generated_Source\PSoC5/CapSense_CSD_CSHL.c ****     }
 267:Generated_Source\PSoC5/CapSense_CSD_CSHL.c **** }
 145              		.loc 1 267 0 is_stmt 1
 146 0014 10BD     		pop	{r4, pc}
 147              		.cfi_endproc
 148              	.LFE2:
 149              		.size	CapSense_CSD_InitializeAllBaselines, .-CapSense_CSD_InitializeAllBaselines
 150 0016 00BF     		.section	.text.CapSense_CSD_InitializeEnabledBaselines,"ax",%progbits
 151              		.align	2
 152              		.global	CapSense_CSD_InitializeEnabledBaselines
 153              		.thumb
 154              		.thumb_func
 155              		.type	CapSense_CSD_InitializeEnabledBaselines, %function
 156              	CapSense_CSD_InitializeEnabledBaselines:
 157              	.LFB3:
 268:Generated_Source\PSoC5/CapSense_CSD_CSHL.c **** 
 269:Generated_Source\PSoC5/CapSense_CSD_CSHL.c **** 
 270:Generated_Source\PSoC5/CapSense_CSD_CSHL.c **** /*******************************************************************************
 271:Generated_Source\PSoC5/CapSense_CSD_CSHL.c **** * Function Name: CapSense_CSD_InitializeEnabledBaselines
 272:Generated_Source\PSoC5/CapSense_CSD_CSHL.c **** ********************************************************************************
 273:Generated_Source\PSoC5/CapSense_CSD_CSHL.c **** *
 274:Generated_Source\PSoC5/CapSense_CSD_CSHL.c **** * Summary:
 275:Generated_Source\PSoC5/CapSense_CSD_CSHL.c **** *  Scans all enabled widgets and the raw count values are copied into the 
 276:Generated_Source\PSoC5/CapSense_CSD_CSHL.c **** *  baseline array for all sensors enabled in scanning process. Baselines 
 277:Generated_Source\PSoC5/CapSense_CSD_CSHL.c **** *  initialize with zero values for sensors disabled from scanning process. 
 278:Generated_Source\PSoC5/CapSense_CSD_CSHL.c **** *  The raw data filters are initialized if enabled.
 279:Generated_Source\PSoC5/CapSense_CSD_CSHL.c **** *
 280:Generated_Source\PSoC5/CapSense_CSD_CSHL.c **** * Parameters:
 281:Generated_Source\PSoC5/CapSense_CSD_CSHL.c **** *  None
 282:Generated_Source\PSoC5/CapSense_CSD_CSHL.c **** *
 283:Generated_Source\PSoC5/CapSense_CSD_CSHL.c **** * Return:
 284:Generated_Source\PSoC5/CapSense_CSD_CSHL.c **** *  None
 285:Generated_Source\PSoC5/CapSense_CSD_CSHL.c **** *
 286:Generated_Source\PSoC5/CapSense_CSD_CSHL.c **** * Reentrant:
 287:Generated_Source\PSoC5/CapSense_CSD_CSHL.c **** *  No
 288:Generated_Source\PSoC5/CapSense_CSD_CSHL.c **** *
 289:Generated_Source\PSoC5/CapSense_CSD_CSHL.c **** *******************************************************************************/
 290:Generated_Source\PSoC5/CapSense_CSD_CSHL.c **** void CapSense_CSD_InitializeEnabledBaselines(void)
 291:Generated_Source\PSoC5/CapSense_CSD_CSHL.c ****                              
 292:Generated_Source\PSoC5/CapSense_CSD_CSHL.c **** {
 158              		.loc 1 292 0
 159              		.cfi_startproc
 160              		@ args = 0, pretend = 0, frame = 0
 161              		@ frame_needed = 0, uses_anonymous_args = 0
 162 0000 10B5     		push	{r4, lr}
ARM GAS  C:\Users\aryan\AppData\Local\Temp\ccEOeQjh.s 			page 9


 163              		.cfi_def_cfa_offset 8
 164              		.cfi_offset 4, -8
 165              		.cfi_offset 14, -4
 293:Generated_Source\PSoC5/CapSense_CSD_CSHL.c ****     uint8 i;
 294:Generated_Source\PSoC5/CapSense_CSD_CSHL.c ****     uint8 pos;
 295:Generated_Source\PSoC5/CapSense_CSD_CSHL.c ****     uint8 enMask;
 296:Generated_Source\PSoC5/CapSense_CSD_CSHL.c ****     
 297:Generated_Source\PSoC5/CapSense_CSD_CSHL.c ****     CapSense_CSD_ScanEnabledWidgets();
 166              		.loc 1 297 0
 167 0002 FFF7FEFF 		bl	CapSense_CSD_ScanEnabledWidgets
 168              	.LVL13:
 169              	.L13:
 298:Generated_Source\PSoC5/CapSense_CSD_CSHL.c ****     while(CapSense_CSD_IsBusy() != 0u)
 170              		.loc 1 298 0 discriminator 1
 171 0006 FFF7FEFF 		bl	CapSense_CSD_IsBusy
 172              	.LVL14:
 173 000a 0028     		cmp	r0, #0
 174 000c FBD1     		bne	.L13
 175 000e 0024     		movs	r4, #0
 176 0010 11E0     		b	.L14
 177              	.LVL15:
 178              	.L16:
 299:Generated_Source\PSoC5/CapSense_CSD_CSHL.c ****     {
 300:Generated_Source\PSoC5/CapSense_CSD_CSHL.c ****         /* Wait while busy */
 301:Generated_Source\PSoC5/CapSense_CSD_CSHL.c ****     }
 302:Generated_Source\PSoC5/CapSense_CSD_CSHL.c ****     
 303:Generated_Source\PSoC5/CapSense_CSD_CSHL.c ****     for(i = 0u; i < CapSense_CSD_TOTAL_SENSOR_COUNT; i++)
 304:Generated_Source\PSoC5/CapSense_CSD_CSHL.c ****     {
 305:Generated_Source\PSoC5/CapSense_CSD_CSHL.c ****         pos = (i >> 3u);
 179              		.loc 1 305 0
 180 0012 E208     		lsrs	r2, r4, #3
 306:Generated_Source\PSoC5/CapSense_CSD_CSHL.c ****         enMask = 0x01u << (i & 0x07u);
 181              		.loc 1 306 0
 182 0014 04F00701 		and	r1, r4, #7
 183 0018 0123     		movs	r3, #1
 184 001a 8B40     		lsls	r3, r3, r1
 185              	.LVL16:
 307:Generated_Source\PSoC5/CapSense_CSD_CSHL.c ****         
 308:Generated_Source\PSoC5/CapSense_CSD_CSHL.c ****         /* Clear raw data if sensor is disabled from scanning process */
 309:Generated_Source\PSoC5/CapSense_CSD_CSHL.c ****         if((CapSense_CSD_sensorEnableMask[pos] & enMask) == 0u)
 186              		.loc 1 309 0
 187 001c 0749     		ldr	r1, .L18
 188 001e 8A5C     		ldrb	r2, [r1, r2]	@ zero_extendqisi2
 189 0020 1342     		tst	r3, r2
 190 0022 03D1     		bne	.L15
 310:Generated_Source\PSoC5/CapSense_CSD_CSHL.c ****         {
 311:Generated_Source\PSoC5/CapSense_CSD_CSHL.c ****             CapSense_CSD_sensorRaw[i] = 0u;
 191              		.loc 1 311 0
 192 0024 0022     		movs	r2, #0
 193 0026 064B     		ldr	r3, .L18+4
 194              	.LVL17:
 195 0028 23F81420 		strh	r2, [r3, r4, lsl #1]	@ movhi
 196              	.L15:
 312:Generated_Source\PSoC5/CapSense_CSD_CSHL.c ****         }
 313:Generated_Source\PSoC5/CapSense_CSD_CSHL.c ****         
 314:Generated_Source\PSoC5/CapSense_CSD_CSHL.c ****         /* Initialize baselines */
 315:Generated_Source\PSoC5/CapSense_CSD_CSHL.c ****         CapSense_CSD_BaseInit(i);
ARM GAS  C:\Users\aryan\AppData\Local\Temp\ccEOeQjh.s 			page 10


 197              		.loc 1 315 0 discriminator 2
 198 002c 2046     		mov	r0, r4
 199 002e FFF7FEFF 		bl	CapSense_CSD_BaseInit
 200              	.LVL18:
 303:Generated_Source\PSoC5/CapSense_CSD_CSHL.c ****     {
 201              		.loc 1 303 0 discriminator 2
 202 0032 0134     		adds	r4, r4, #1
 203              	.LVL19:
 204 0034 E4B2     		uxtb	r4, r4
 205              	.LVL20:
 206              	.L14:
 303:Generated_Source\PSoC5/CapSense_CSD_CSHL.c ****     {
 207              		.loc 1 303 0 is_stmt 0 discriminator 1
 208 0036 062C     		cmp	r4, #6
 209 0038 EBD9     		bls	.L16
 316:Generated_Source\PSoC5/CapSense_CSD_CSHL.c ****     }
 317:Generated_Source\PSoC5/CapSense_CSD_CSHL.c **** }  
 210              		.loc 1 317 0 is_stmt 1
 211 003a 10BD     		pop	{r4, pc}
 212              	.LVL21:
 213              	.L19:
 214              		.align	2
 215              	.L18:
 216 003c 00000000 		.word	CapSense_CSD_sensorEnableMask
 217 0040 00000000 		.word	CapSense_CSD_sensorRaw
 218              		.cfi_endproc
 219              	.LFE3:
 220              		.size	CapSense_CSD_InitializeEnabledBaselines, .-CapSense_CSD_InitializeEnabledBaselines
 221              		.section	.text.CapSense_CSD_UpdateSensorBaseline,"ax",%progbits
 222              		.align	2
 223              		.global	CapSense_CSD_UpdateSensorBaseline
 224              		.thumb
 225              		.thumb_func
 226              		.type	CapSense_CSD_UpdateSensorBaseline, %function
 227              	CapSense_CSD_UpdateSensorBaseline:
 228              	.LFB4:
 318:Generated_Source\PSoC5/CapSense_CSD_CSHL.c **** 
 319:Generated_Source\PSoC5/CapSense_CSD_CSHL.c **** 
 320:Generated_Source\PSoC5/CapSense_CSD_CSHL.c **** /*******************************************************************************
 321:Generated_Source\PSoC5/CapSense_CSD_CSHL.c **** * Function Name: CapSense_CSD_UpdateSensorBaseline
 322:Generated_Source\PSoC5/CapSense_CSD_CSHL.c **** ********************************************************************************
 323:Generated_Source\PSoC5/CapSense_CSD_CSHL.c **** *
 324:Generated_Source\PSoC5/CapSense_CSD_CSHL.c **** * Summary:
 325:Generated_Source\PSoC5/CapSense_CSD_CSHL.c **** *  Updates the CapSense_CSD_sensorBaseline[sensor] array element using the 
 326:Generated_Source\PSoC5/CapSense_CSD_CSHL.c **** *  LP filter with k = 256. The signal calculates the difference of count by 
 327:Generated_Source\PSoC5/CapSense_CSD_CSHL.c **** *  subtracting the previous baseline from the current raw count value and stores
 328:Generated_Source\PSoC5/CapSense_CSD_CSHL.c **** *  it in CapSense_CSD_SensorSignal[sensor]. 
 329:Generated_Source\PSoC5/CapSense_CSD_CSHL.c **** *  If auto reset option is enabled the baseline updated regards noise threshold. 
 330:Generated_Source\PSoC5/CapSense_CSD_CSHL.c **** *  If auto reset option is disabled the baseline stops updating if signal is 
 331:Generated_Source\PSoC5/CapSense_CSD_CSHL.c **** *  greater that zero and baseline loads with raw count value if signal is less 
 332:Generated_Source\PSoC5/CapSense_CSD_CSHL.c **** *  that noise threshold.
 333:Generated_Source\PSoC5/CapSense_CSD_CSHL.c **** *  Raw data filters are applied to the values if enabled before baseline 
 334:Generated_Source\PSoC5/CapSense_CSD_CSHL.c **** *  calculation.
 335:Generated_Source\PSoC5/CapSense_CSD_CSHL.c **** *
 336:Generated_Source\PSoC5/CapSense_CSD_CSHL.c **** * Parameters:
 337:Generated_Source\PSoC5/CapSense_CSD_CSHL.c **** *  sensor:  Sensor number.
 338:Generated_Source\PSoC5/CapSense_CSD_CSHL.c **** *
ARM GAS  C:\Users\aryan\AppData\Local\Temp\ccEOeQjh.s 			page 11


 339:Generated_Source\PSoC5/CapSense_CSD_CSHL.c **** * Return:
 340:Generated_Source\PSoC5/CapSense_CSD_CSHL.c **** *  None
 341:Generated_Source\PSoC5/CapSense_CSD_CSHL.c **** *
 342:Generated_Source\PSoC5/CapSense_CSD_CSHL.c **** * Global Variables:
 343:Generated_Source\PSoC5/CapSense_CSD_CSHL.c **** *  CapSense_CSD_sensorBaseline[]    - used to store baseline value.
 344:Generated_Source\PSoC5/CapSense_CSD_CSHL.c **** *  CapSense_CSD_sensorBaselineLow[] - used to store fraction byte of 
 345:Generated_Source\PSoC5/CapSense_CSD_CSHL.c **** *  baseline value.
 346:Generated_Source\PSoC5/CapSense_CSD_CSHL.c **** *  CapSense_CSD_sensorSignal[]      - used to store diffence between 
 347:Generated_Source\PSoC5/CapSense_CSD_CSHL.c **** *  current value of raw data and previous value of baseline.
 348:Generated_Source\PSoC5/CapSense_CSD_CSHL.c **** *  CapSense_CSD_rawFilterData1[]    - used to store previous sample of 
 349:Generated_Source\PSoC5/CapSense_CSD_CSHL.c **** *  any enabled raw data filter.
 350:Generated_Source\PSoC5/CapSense_CSD_CSHL.c **** *  CapSense_CSD_rawFilterData2[]    - used to store before previous sample
 351:Generated_Source\PSoC5/CapSense_CSD_CSHL.c **** *  of enabled raw data filter. Only required for median or average filters.
 352:Generated_Source\PSoC5/CapSense_CSD_CSHL.c **** *
 353:Generated_Source\PSoC5/CapSense_CSD_CSHL.c **** * Reentrant:
 354:Generated_Source\PSoC5/CapSense_CSD_CSHL.c **** *  No
 355:Generated_Source\PSoC5/CapSense_CSD_CSHL.c **** *
 356:Generated_Source\PSoC5/CapSense_CSD_CSHL.c **** *******************************************************************************/
 357:Generated_Source\PSoC5/CapSense_CSD_CSHL.c ****  void CapSense_CSD_UpdateSensorBaseline(uint8 sensor)
 358:Generated_Source\PSoC5/CapSense_CSD_CSHL.c ****                                  
 359:Generated_Source\PSoC5/CapSense_CSD_CSHL.c **** {
 229              		.loc 1 359 0
 230              		.cfi_startproc
 231              		@ args = 0, pretend = 0, frame = 0
 232              		@ frame_needed = 0, uses_anonymous_args = 0
 233              	.LVL22:
 234 0000 F8B5     		push	{r3, r4, r5, r6, r7, lr}
 235              		.cfi_def_cfa_offset 24
 236              		.cfi_offset 3, -24
 237              		.cfi_offset 4, -20
 238              		.cfi_offset 5, -16
 239              		.cfi_offset 6, -12
 240              		.cfi_offset 7, -8
 241              		.cfi_offset 14, -4
 242 0002 0446     		mov	r4, r0
 360:Generated_Source\PSoC5/CapSense_CSD_CSHL.c ****     uint32 calc;
 361:Generated_Source\PSoC5/CapSense_CSD_CSHL.c ****     uint16 tempRaw;
 362:Generated_Source\PSoC5/CapSense_CSD_CSHL.c ****     uint16 filteredRawData;
 363:Generated_Source\PSoC5/CapSense_CSD_CSHL.c ****     uint8 widget = CapSense_CSD_widgetNumber[sensor];
 243              		.loc 1 363 0
 244 0004 234B     		ldr	r3, .L30
 245 0006 1A5C     		ldrb	r2, [r3, r0]	@ zero_extendqisi2
 246              	.LVL23:
 364:Generated_Source\PSoC5/CapSense_CSD_CSHL.c ****     uint16 noiseThreshold = CapSense_CSD_noiseThreshold[widget];
 247              		.loc 1 364 0
 248 0008 234B     		ldr	r3, .L30+4
 249 000a 03EB4203 		add	r3, r3, r2, lsl #1
 250 000e 9E88     		ldrh	r6, [r3, #4]
 251              	.LVL24:
 365:Generated_Source\PSoC5/CapSense_CSD_CSHL.c ****     
 366:Generated_Source\PSoC5/CapSense_CSD_CSHL.c ****     #if (CapSense_CSD_TOTAL_GENERICS_COUNT)
 367:Generated_Source\PSoC5/CapSense_CSD_CSHL.c ****         /* Exclude generic widget */
 368:Generated_Source\PSoC5/CapSense_CSD_CSHL.c ****         if(widget < CapSense_CSD_END_OF_WIDGETS_INDEX)
 369:Generated_Source\PSoC5/CapSense_CSD_CSHL.c ****         {
 370:Generated_Source\PSoC5/CapSense_CSD_CSHL.c ****     #endif  /* CapSense_CSD_TOTAL_GENERICS_COUNT */
 371:Generated_Source\PSoC5/CapSense_CSD_CSHL.c ****     
 372:Generated_Source\PSoC5/CapSense_CSD_CSHL.c ****     filteredRawData = CapSense_CSD_sensorRaw[sensor];
ARM GAS  C:\Users\aryan\AppData\Local\Temp\ccEOeQjh.s 			page 12


 252              		.loc 1 372 0
 253 0010 224B     		ldr	r3, .L30+8
 254 0012 33F81030 		ldrh	r3, [r3, r0, lsl #1]
 255              	.LVL25:
 373:Generated_Source\PSoC5/CapSense_CSD_CSHL.c ****     
 374:Generated_Source\PSoC5/CapSense_CSD_CSHL.c ****     #if (CapSense_CSD_RAW_FILTER_MASK & CapSense_CSD_MEDIAN_FILTER)
 375:Generated_Source\PSoC5/CapSense_CSD_CSHL.c ****         tempRaw = filteredRawData;
 376:Generated_Source\PSoC5/CapSense_CSD_CSHL.c ****         filteredRawData = CapSense_CSD_MedianFilter(filteredRawData, CapSense_CSD_rawFilterData1[se
 377:Generated_Source\PSoC5/CapSense_CSD_CSHL.c ****                                                         CapSense_CSD_rawFilterData2[sensor]);
 378:Generated_Source\PSoC5/CapSense_CSD_CSHL.c ****         CapSense_CSD_rawFilterData2[sensor] = CapSense_CSD_rawFilterData1[sensor];
 379:Generated_Source\PSoC5/CapSense_CSD_CSHL.c ****         CapSense_CSD_rawFilterData1[sensor] = tempRaw;
 380:Generated_Source\PSoC5/CapSense_CSD_CSHL.c ****         
 381:Generated_Source\PSoC5/CapSense_CSD_CSHL.c ****     #elif (CapSense_CSD_RAW_FILTER_MASK & CapSense_CSD_AVERAGING_FILTER)
 382:Generated_Source\PSoC5/CapSense_CSD_CSHL.c ****         tempRaw = filteredRawData;
 383:Generated_Source\PSoC5/CapSense_CSD_CSHL.c ****         filteredRawData = CapSense_CSD_AveragingFilter(filteredRawData, CapSense_CSD_rawFilterData1
 384:Generated_Source\PSoC5/CapSense_CSD_CSHL.c ****                                                            CapSense_CSD_rawFilterData2[sensor]);
 385:Generated_Source\PSoC5/CapSense_CSD_CSHL.c ****         CapSense_CSD_rawFilterData2[sensor] = CapSense_CSD_rawFilterData1[sensor];
 386:Generated_Source\PSoC5/CapSense_CSD_CSHL.c ****         CapSense_CSD_rawFilterData1[sensor] = tempRaw;
 387:Generated_Source\PSoC5/CapSense_CSD_CSHL.c ****         
 388:Generated_Source\PSoC5/CapSense_CSD_CSHL.c ****     #elif (CapSense_CSD_RAW_FILTER_MASK & CapSense_CSD_IIR2_FILTER)
 389:Generated_Source\PSoC5/CapSense_CSD_CSHL.c ****         filteredRawData = CapSense_CSD_IIR2Filter(filteredRawData, CapSense_CSD_rawFilterData1[sens
 390:Generated_Source\PSoC5/CapSense_CSD_CSHL.c ****         CapSense_CSD_rawFilterData1[sensor] = filteredRawData;
 391:Generated_Source\PSoC5/CapSense_CSD_CSHL.c ****         
 392:Generated_Source\PSoC5/CapSense_CSD_CSHL.c ****     #elif (CapSense_CSD_RAW_FILTER_MASK & CapSense_CSD_IIR4_FILTER)
 393:Generated_Source\PSoC5/CapSense_CSD_CSHL.c ****         filteredRawData = CapSense_CSD_IIR4Filter(filteredRawData, CapSense_CSD_rawFilterData1[sens
 394:Generated_Source\PSoC5/CapSense_CSD_CSHL.c ****         CapSense_CSD_rawFilterData1[sensor] = filteredRawData;
 395:Generated_Source\PSoC5/CapSense_CSD_CSHL.c ****             
 396:Generated_Source\PSoC5/CapSense_CSD_CSHL.c ****     #elif (CapSense_CSD_RAW_FILTER_MASK & CapSense_CSD_JITTER_FILTER)
 397:Generated_Source\PSoC5/CapSense_CSD_CSHL.c ****         filteredRawData = CapSense_CSD_JitterFilter(filteredRawData, CapSense_CSD_rawFilterData1[se
 398:Generated_Source\PSoC5/CapSense_CSD_CSHL.c ****         CapSense_CSD_rawFilterData1[sensor] = filteredRawData;
 399:Generated_Source\PSoC5/CapSense_CSD_CSHL.c ****         
 400:Generated_Source\PSoC5/CapSense_CSD_CSHL.c ****     #elif (CapSense_CSD_RAW_FILTER_MASK & CapSense_CSD_IIR8_FILTER)
 401:Generated_Source\PSoC5/CapSense_CSD_CSHL.c ****         filteredRawData = CapSense_CSD_IIR8Filter(filteredRawData, CapSense_CSD_rawFilterData1[sens
 402:Generated_Source\PSoC5/CapSense_CSD_CSHL.c ****         CapSense_CSD_rawFilterData1[sensor] = filteredRawData;
 403:Generated_Source\PSoC5/CapSense_CSD_CSHL.c ****         
 404:Generated_Source\PSoC5/CapSense_CSD_CSHL.c ****     #elif (CapSense_CSD_RAW_FILTER_MASK & CapSense_CSD_IIR16_FILTER)
 405:Generated_Source\PSoC5/CapSense_CSD_CSHL.c ****         filteredRawData = CapSense_CSD_IIR16Filter(filteredRawData, CapSense_CSD_rawFilterData1[sen
 406:Generated_Source\PSoC5/CapSense_CSD_CSHL.c ****         CapSense_CSD_rawFilterData1[sensor] = filteredRawData;
 407:Generated_Source\PSoC5/CapSense_CSD_CSHL.c ****         
 408:Generated_Source\PSoC5/CapSense_CSD_CSHL.c ****     #else
 409:Generated_Source\PSoC5/CapSense_CSD_CSHL.c ****         /* No Raw filters */
 410:Generated_Source\PSoC5/CapSense_CSD_CSHL.c ****     #endif  /* (CapSense_CSD_RAW_FILTER_MASK & CapSense_CSD_MEDIAN_FILTER) */
 411:Generated_Source\PSoC5/CapSense_CSD_CSHL.c ****     
 412:Generated_Source\PSoC5/CapSense_CSD_CSHL.c ****     #if (CapSense_CSD_TUNING_METHOD == CapSense_CSD_AUTO_TUNING)
 413:Generated_Source\PSoC5/CapSense_CSD_CSHL.c ****         CapSense_CSD_CalculateThresholds(sensor);
 414:Generated_Source\PSoC5/CapSense_CSD_CSHL.c ****     #endif /* (CapSense_CSD_TUNING_METHOD == CapSense_CSD_AUTO_TUNING) */
 415:Generated_Source\PSoC5/CapSense_CSD_CSHL.c **** 
 416:Generated_Source\PSoC5/CapSense_CSD_CSHL.c **** 
 417:Generated_Source\PSoC5/CapSense_CSD_CSHL.c ****     /* Baseline calculation */
 418:Generated_Source\PSoC5/CapSense_CSD_CSHL.c ****     /* Calculate difference RawData[cur] - Baseline[prev] */
 419:Generated_Source\PSoC5/CapSense_CSD_CSHL.c ****     if(filteredRawData >= CapSense_CSD_sensorBaseline[sensor])
 256              		.loc 1 419 0
 257 0016 224A     		ldr	r2, .L30+12
 258              	.LVL26:
 259 0018 32F81010 		ldrh	r1, [r2, r0, lsl #1]
 260 001c 8B42     		cmp	r3, r1
 261 001e 03D3     		bcc	.L21
ARM GAS  C:\Users\aryan\AppData\Local\Temp\ccEOeQjh.s 			page 13


 420:Generated_Source\PSoC5/CapSense_CSD_CSHL.c ****     {
 421:Generated_Source\PSoC5/CapSense_CSD_CSHL.c ****         tempRaw = filteredRawData - CapSense_CSD_sensorBaseline[sensor];
 262              		.loc 1 421 0
 263 0020 5D1A     		subs	r5, r3, r1
 264 0022 ADB2     		uxth	r5, r5
 265              	.LVL27:
 422:Generated_Source\PSoC5/CapSense_CSD_CSHL.c ****         widget = 1u;    /* Positive difference - Calculate the Signal */
 266              		.loc 1 422 0
 267 0024 0127     		movs	r7, #1
 268 0026 02E0     		b	.L22
 269              	.LVL28:
 270              	.L21:
 423:Generated_Source\PSoC5/CapSense_CSD_CSHL.c ****     }
 424:Generated_Source\PSoC5/CapSense_CSD_CSHL.c ****     else
 425:Generated_Source\PSoC5/CapSense_CSD_CSHL.c ****     {
 426:Generated_Source\PSoC5/CapSense_CSD_CSHL.c ****         tempRaw = CapSense_CSD_sensorBaseline[sensor] - filteredRawData;
 271              		.loc 1 426 0
 272 0028 CD1A     		subs	r5, r1, r3
 273 002a ADB2     		uxth	r5, r5
 274              	.LVL29:
 427:Generated_Source\PSoC5/CapSense_CSD_CSHL.c ****         widget = 0u;    /* Negative difference - Do NOT calculate the Signal */
 275              		.loc 1 427 0
 276 002c 0027     		movs	r7, #0
 277              	.LVL30:
 278              	.L22:
 428:Generated_Source\PSoC5/CapSense_CSD_CSHL.c ****     }
 429:Generated_Source\PSoC5/CapSense_CSD_CSHL.c **** 
 430:Generated_Source\PSoC5/CapSense_CSD_CSHL.c ****     if((widget == 0u) && (tempRaw > (uint16) CapSense_CSD_NEGATIVE_NOISE_THRESHOLD))
 279              		.loc 1 430 0
 280 002e 87B9     		cbnz	r7, .L23
 281              		.loc 1 430 0 is_stmt 0 discriminator 1
 282 0030 142D     		cmp	r5, #20
 283 0032 0ED9     		bls	.L23
 431:Generated_Source\PSoC5/CapSense_CSD_CSHL.c ****     {
 432:Generated_Source\PSoC5/CapSense_CSD_CSHL.c ****         if(CapSense_CSD_lowBaselineResetCnt[sensor] >= CapSense_CSD_LOW_BASELINE_RESET)
 284              		.loc 1 432 0 is_stmt 1
 285 0034 1B4B     		ldr	r3, .L30+16
 286              	.LVL31:
 287 0036 1B5D     		ldrb	r3, [r3, r4]	@ zero_extendqisi2
 288 0038 042B     		cmp	r3, #4
 289 003a 06D9     		bls	.L24
 433:Generated_Source\PSoC5/CapSense_CSD_CSHL.c ****         {
 434:Generated_Source\PSoC5/CapSense_CSD_CSHL.c ****             CapSense_CSD_BaseInit(sensor);
 290              		.loc 1 434 0
 291 003c 2046     		mov	r0, r4
 292              	.LVL32:
 293 003e FFF7FEFF 		bl	CapSense_CSD_BaseInit
 294              	.LVL33:
 435:Generated_Source\PSoC5/CapSense_CSD_CSHL.c ****             CapSense_CSD_lowBaselineResetCnt[sensor] = 0u;
 295              		.loc 1 435 0
 296 0042 0022     		movs	r2, #0
 297 0044 174B     		ldr	r3, .L30+16
 298 0046 1A55     		strb	r2, [r3, r4]
 299 0048 17E0     		b	.L25
 300              	.LVL34:
 301              	.L24:
 436:Generated_Source\PSoC5/CapSense_CSD_CSHL.c ****         }
ARM GAS  C:\Users\aryan\AppData\Local\Temp\ccEOeQjh.s 			page 14


 437:Generated_Source\PSoC5/CapSense_CSD_CSHL.c ****         else
 438:Generated_Source\PSoC5/CapSense_CSD_CSHL.c ****         {
 439:Generated_Source\PSoC5/CapSense_CSD_CSHL.c ****             CapSense_CSD_lowBaselineResetCnt[sensor]++;
 302              		.loc 1 439 0
 303 004a 0133     		adds	r3, r3, #1
 304 004c 154A     		ldr	r2, .L30+16
 305 004e 1355     		strb	r3, [r2, r4]
 306 0050 13E0     		b	.L25
 307              	.LVL35:
 308              	.L23:
 440:Generated_Source\PSoC5/CapSense_CSD_CSHL.c ****         }
 441:Generated_Source\PSoC5/CapSense_CSD_CSHL.c ****     }
 442:Generated_Source\PSoC5/CapSense_CSD_CSHL.c ****     else
 443:Generated_Source\PSoC5/CapSense_CSD_CSHL.c ****     {
 444:Generated_Source\PSoC5/CapSense_CSD_CSHL.c ****         #if (CapSense_CSD_AUTO_RESET == CapSense_CSD_AUTO_RESET_DISABLE)
 445:Generated_Source\PSoC5/CapSense_CSD_CSHL.c ****             /* Update Baseline if lower that noiseThreshold */
 446:Generated_Source\PSoC5/CapSense_CSD_CSHL.c ****             if ( (tempRaw <= (uint16) noiseThreshold) || 
 309              		.loc 1 446 0
 310 0052 B542     		cmp	r5, r6
 311 0054 02D9     		bls	.L26
 312              		.loc 1 446 0 is_stmt 0 discriminator 1
 313 0056 132D     		cmp	r5, #19
 314 0058 0FD8     		bhi	.L25
 447:Generated_Source\PSoC5/CapSense_CSD_CSHL.c ****                  ((tempRaw < (uint16) CapSense_CSD_NEGATIVE_NOISE_THRESHOLD)
 448:Generated_Source\PSoC5/CapSense_CSD_CSHL.c ****                    && (widget == 0u)))
 315              		.loc 1 448 0 is_stmt 1
 316 005a 77B9     		cbnz	r7, .L25
 317              	.L26:
 318              	.LVL36:
 449:Generated_Source\PSoC5/CapSense_CSD_CSHL.c ****             {
 450:Generated_Source\PSoC5/CapSense_CSD_CSHL.c ****         #endif /* (CapSense_CSD_AUTO_RESET == CapSense_CSD_AUTO_RESET_DISABLE) */
 451:Generated_Source\PSoC5/CapSense_CSD_CSHL.c ****                 /* Make full Baseline 23 bits */
 452:Generated_Source\PSoC5/CapSense_CSD_CSHL.c ****                 calc = (uint32) CapSense_CSD_sensorBaseline[sensor] << 8u;
 453:Generated_Source\PSoC5/CapSense_CSD_CSHL.c ****                 calc |= (uint32) CapSense_CSD_sensorBaselineLow[sensor];
 319              		.loc 1 453 0
 320 005c 1248     		ldr	r0, .L30+20
 321              	.LVL37:
 322 005e 025D     		ldrb	r2, [r0, r4]	@ zero_extendqisi2
 323 0060 42EA0122 		orr	r2, r2, r1, lsl #8
 324              	.LVL38:
 454:Generated_Source\PSoC5/CapSense_CSD_CSHL.c **** 
 455:Generated_Source\PSoC5/CapSense_CSD_CSHL.c ****                 /* Add Raw Data to Baseline */
 456:Generated_Source\PSoC5/CapSense_CSD_CSHL.c ****                 calc += filteredRawData;
 325              		.loc 1 456 0
 326 0064 1344     		add	r3, r3, r2
 327              	.LVL39:
 457:Generated_Source\PSoC5/CapSense_CSD_CSHL.c **** 
 458:Generated_Source\PSoC5/CapSense_CSD_CSHL.c ****                 /* Sub the high Baseline */
 459:Generated_Source\PSoC5/CapSense_CSD_CSHL.c ****                 calc -= CapSense_CSD_sensorBaseline[sensor];
 328              		.loc 1 459 0
 329 0066 5B1A     		subs	r3, r3, r1
 330              	.LVL40:
 460:Generated_Source\PSoC5/CapSense_CSD_CSHL.c **** 
 461:Generated_Source\PSoC5/CapSense_CSD_CSHL.c ****                 /* Put Baseline and BaselineLow */
 462:Generated_Source\PSoC5/CapSense_CSD_CSHL.c ****                 CapSense_CSD_sensorBaseline[sensor] = ((uint16) (calc >> 8u));
 331              		.loc 1 462 0
 332 0068 C3F30F21 		ubfx	r1, r3, #8, #16
ARM GAS  C:\Users\aryan\AppData\Local\Temp\ccEOeQjh.s 			page 15


 333 006c 0C4A     		ldr	r2, .L30+12
 334 006e 22F81410 		strh	r1, [r2, r4, lsl #1]	@ movhi
 463:Generated_Source\PSoC5/CapSense_CSD_CSHL.c ****                 CapSense_CSD_sensorBaselineLow[sensor] = ((uint8) calc);
 335              		.loc 1 463 0
 336 0072 0355     		strb	r3, [r0, r4]
 464:Generated_Source\PSoC5/CapSense_CSD_CSHL.c **** 
 465:Generated_Source\PSoC5/CapSense_CSD_CSHL.c ****                 CapSense_CSD_lowBaselineResetCnt[sensor] = 0u;
 337              		.loc 1 465 0
 338 0074 0022     		movs	r2, #0
 339 0076 0B4B     		ldr	r3, .L30+16
 340              	.LVL41:
 341 0078 1A55     		strb	r2, [r3, r4]
 342              	.LVL42:
 343              	.L25:
 466:Generated_Source\PSoC5/CapSense_CSD_CSHL.c ****         #if (CapSense_CSD_AUTO_RESET == CapSense_CSD_AUTO_RESET_DISABLE)
 467:Generated_Source\PSoC5/CapSense_CSD_CSHL.c ****             }
 468:Generated_Source\PSoC5/CapSense_CSD_CSHL.c ****         #endif /* (CapSense_CSD_AUTO_RESET == CapSense_CSD_AUTO_RESET_DISABLE) */
 469:Generated_Source\PSoC5/CapSense_CSD_CSHL.c ****     }
 470:Generated_Source\PSoC5/CapSense_CSD_CSHL.c **** 
 471:Generated_Source\PSoC5/CapSense_CSD_CSHL.c ****     /* Calculate Signal if possitive difference > noiseThreshold */
 472:Generated_Source\PSoC5/CapSense_CSD_CSHL.c ****     if((tempRaw > (uint16) noiseThreshold) && (widget != 0u))
 344              		.loc 1 472 0
 345 007a B542     		cmp	r5, r6
 346 007c 04D9     		bls	.L27
 347              		.loc 1 472 0 is_stmt 0 discriminator 1
 348 007e 1FB1     		cbz	r7, .L27
 473:Generated_Source\PSoC5/CapSense_CSD_CSHL.c ****     {
 474:Generated_Source\PSoC5/CapSense_CSD_CSHL.c ****         #if (CapSense_CSD_SIGNAL_SIZE == CapSense_CSD_SIGNAL_SIZE_UINT8)
 475:Generated_Source\PSoC5/CapSense_CSD_CSHL.c ****             /* Over flow defence for uint8 */
 476:Generated_Source\PSoC5/CapSense_CSD_CSHL.c ****             if (tempRaw > 0xFFu)
 477:Generated_Source\PSoC5/CapSense_CSD_CSHL.c ****             {
 478:Generated_Source\PSoC5/CapSense_CSD_CSHL.c ****                 CapSense_CSD_sensorSignal[sensor] = 0xFFu;
 479:Generated_Source\PSoC5/CapSense_CSD_CSHL.c ****             }    
 480:Generated_Source\PSoC5/CapSense_CSD_CSHL.c ****             else 
 481:Generated_Source\PSoC5/CapSense_CSD_CSHL.c ****             {
 482:Generated_Source\PSoC5/CapSense_CSD_CSHL.c ****                 CapSense_CSD_sensorSignal[sensor] = ((uint8) tempRaw);
 483:Generated_Source\PSoC5/CapSense_CSD_CSHL.c ****             }
 484:Generated_Source\PSoC5/CapSense_CSD_CSHL.c ****         #else
 485:Generated_Source\PSoC5/CapSense_CSD_CSHL.c ****             CapSense_CSD_sensorSignal[sensor] = ((uint16) tempRaw);
 349              		.loc 1 485 0 is_stmt 1
 350 0080 0A4B     		ldr	r3, .L30+24
 351 0082 23F81450 		strh	r5, [r3, r4, lsl #1]	@ movhi
 352 0086 F8BD     		pop	{r3, r4, r5, r6, r7, pc}
 353              	.LVL43:
 354              	.L27:
 486:Generated_Source\PSoC5/CapSense_CSD_CSHL.c ****         #endif  /* (CapSense_CSD_SIGNAL_SIZE == CapSense_CSD_SIGNAL_SIZE_UINT8) */
 487:Generated_Source\PSoC5/CapSense_CSD_CSHL.c ****     }
 488:Generated_Source\PSoC5/CapSense_CSD_CSHL.c ****     else
 489:Generated_Source\PSoC5/CapSense_CSD_CSHL.c ****     {
 490:Generated_Source\PSoC5/CapSense_CSD_CSHL.c ****         /* Signal is zero */
 491:Generated_Source\PSoC5/CapSense_CSD_CSHL.c ****         CapSense_CSD_sensorSignal[sensor] = 0u;
 355              		.loc 1 491 0
 356 0088 0022     		movs	r2, #0
 357 008a 084B     		ldr	r3, .L30+24
 358 008c 23F81420 		strh	r2, [r3, r4, lsl #1]	@ movhi
 359 0090 F8BD     		pop	{r3, r4, r5, r6, r7, pc}
 360              	.LVL44:
ARM GAS  C:\Users\aryan\AppData\Local\Temp\ccEOeQjh.s 			page 16


 361              	.L31:
 362 0092 00BF     		.align	2
 363              	.L30:
 364 0094 00000000 		.word	CapSense_CSD_widgetNumber
 365 0098 00000000 		.word	.LANCHOR0
 366 009c 00000000 		.word	CapSense_CSD_sensorRaw
 367 00a0 00000000 		.word	CapSense_CSD_sensorBaseline
 368 00a4 00000000 		.word	CapSense_CSD_lowBaselineResetCnt
 369 00a8 00000000 		.word	CapSense_CSD_sensorBaselineLow
 370 00ac 00000000 		.word	CapSense_CSD_sensorSignal
 371              		.cfi_endproc
 372              	.LFE4:
 373              		.size	CapSense_CSD_UpdateSensorBaseline, .-CapSense_CSD_UpdateSensorBaseline
 374              		.section	.text.CapSense_CSD_UpdateEnabledBaselines,"ax",%progbits
 375              		.align	2
 376              		.global	CapSense_CSD_UpdateEnabledBaselines
 377              		.thumb
 378              		.thumb_func
 379              		.type	CapSense_CSD_UpdateEnabledBaselines, %function
 380              	CapSense_CSD_UpdateEnabledBaselines:
 381              	.LFB5:
 492:Generated_Source\PSoC5/CapSense_CSD_CSHL.c ****     }
 493:Generated_Source\PSoC5/CapSense_CSD_CSHL.c **** 
 494:Generated_Source\PSoC5/CapSense_CSD_CSHL.c ****     #if (CapSense_CSD_TOTAL_GENERICS_COUNT)
 495:Generated_Source\PSoC5/CapSense_CSD_CSHL.c ****         /* Exclude generic widget */
 496:Generated_Source\PSoC5/CapSense_CSD_CSHL.c ****         }
 497:Generated_Source\PSoC5/CapSense_CSD_CSHL.c ****     #endif  /* CapSense_CSD_TOTAL_GENERICS_COUNT */
 498:Generated_Source\PSoC5/CapSense_CSD_CSHL.c **** }
 499:Generated_Source\PSoC5/CapSense_CSD_CSHL.c **** 
 500:Generated_Source\PSoC5/CapSense_CSD_CSHL.c **** 
 501:Generated_Source\PSoC5/CapSense_CSD_CSHL.c **** /*******************************************************************************
 502:Generated_Source\PSoC5/CapSense_CSD_CSHL.c **** * Function Name: CapSense_CSD_UpdateEnabledBaselines
 503:Generated_Source\PSoC5/CapSense_CSD_CSHL.c **** ********************************************************************************
 504:Generated_Source\PSoC5/CapSense_CSD_CSHL.c **** *
 505:Generated_Source\PSoC5/CapSense_CSD_CSHL.c **** * Summary:
 506:Generated_Source\PSoC5/CapSense_CSD_CSHL.c **** *  Checks CapSense_CSD_sensorEnableMask[] array and calls the 
 507:Generated_Source\PSoC5/CapSense_CSD_CSHL.c **** *  CapSense_CSD_UpdateSensorBaseline function to update the baselines 
 508:Generated_Source\PSoC5/CapSense_CSD_CSHL.c **** *  for enabled sensors.
 509:Generated_Source\PSoC5/CapSense_CSD_CSHL.c **** *
 510:Generated_Source\PSoC5/CapSense_CSD_CSHL.c **** * Parameters:
 511:Generated_Source\PSoC5/CapSense_CSD_CSHL.c **** *  None
 512:Generated_Source\PSoC5/CapSense_CSD_CSHL.c **** *
 513:Generated_Source\PSoC5/CapSense_CSD_CSHL.c **** * Return:
 514:Generated_Source\PSoC5/CapSense_CSD_CSHL.c **** *  None
 515:Generated_Source\PSoC5/CapSense_CSD_CSHL.c **** *
 516:Generated_Source\PSoC5/CapSense_CSD_CSHL.c **** * Global Variables:
 517:Generated_Source\PSoC5/CapSense_CSD_CSHL.c **** *  CapSense_CSD_sensorEnableMask[] - used to store the sensor scanning 
 518:Generated_Source\PSoC5/CapSense_CSD_CSHL.c **** *  state.
 519:Generated_Source\PSoC5/CapSense_CSD_CSHL.c **** *  CapSense_CSD_sensorEnableMask[0] contains the masked bits for sensors 
 520:Generated_Source\PSoC5/CapSense_CSD_CSHL.c **** *   0 through 7 (sensor 0 is bit 0, sensor 1 is bit 1).
 521:Generated_Source\PSoC5/CapSense_CSD_CSHL.c **** *  CapSense_CSD_sensorEnableMask[1] contains the masked bits for 
 522:Generated_Source\PSoC5/CapSense_CSD_CSHL.c **** *  sensors 8 through 15 (if needed), and so on.
 523:Generated_Source\PSoC5/CapSense_CSD_CSHL.c **** *  0 - sensor doesn't scan by CapSense_CSD_ScanEnabledWidgets().
 524:Generated_Source\PSoC5/CapSense_CSD_CSHL.c **** *  1 - sensor scans by CapSense_CSD_ScanEnabledWidgets().
 525:Generated_Source\PSoC5/CapSense_CSD_CSHL.c **** *
 526:Generated_Source\PSoC5/CapSense_CSD_CSHL.c **** * Reentrant:
 527:Generated_Source\PSoC5/CapSense_CSD_CSHL.c **** *  No
ARM GAS  C:\Users\aryan\AppData\Local\Temp\ccEOeQjh.s 			page 17


 528:Generated_Source\PSoC5/CapSense_CSD_CSHL.c **** *
 529:Generated_Source\PSoC5/CapSense_CSD_CSHL.c **** *******************************************************************************/
 530:Generated_Source\PSoC5/CapSense_CSD_CSHL.c ****  void CapSense_CSD_UpdateEnabledBaselines(void)
 531:Generated_Source\PSoC5/CapSense_CSD_CSHL.c ****                                  
 532:Generated_Source\PSoC5/CapSense_CSD_CSHL.c **** {
 382              		.loc 1 532 0
 383              		.cfi_startproc
 384              		@ args = 0, pretend = 0, frame = 0
 385              		@ frame_needed = 0, uses_anonymous_args = 0
 386 0000 10B5     		push	{r4, lr}
 387              		.cfi_def_cfa_offset 8
 388              		.cfi_offset 4, -8
 389              		.cfi_offset 14, -4
 390              	.LVL45:
 533:Generated_Source\PSoC5/CapSense_CSD_CSHL.c ****     uint8 i;
 534:Generated_Source\PSoC5/CapSense_CSD_CSHL.c ****     uint8 pos;
 535:Generated_Source\PSoC5/CapSense_CSD_CSHL.c ****     uint8 enMask;
 536:Generated_Source\PSoC5/CapSense_CSD_CSHL.c ****     
 537:Generated_Source\PSoC5/CapSense_CSD_CSHL.c ****     for(i = 0u; i < CapSense_CSD_TOTAL_SENSOR_COUNT; i++)
 391              		.loc 1 537 0
 392 0002 0024     		movs	r4, #0
 393 0004 0DE0     		b	.L33
 394              	.LVL46:
 395              	.L35:
 538:Generated_Source\PSoC5/CapSense_CSD_CSHL.c ****     {
 539:Generated_Source\PSoC5/CapSense_CSD_CSHL.c ****         pos = (i >> 3u);
 396              		.loc 1 539 0
 397 0006 E208     		lsrs	r2, r4, #3
 540:Generated_Source\PSoC5/CapSense_CSD_CSHL.c ****         enMask = (uint8)(0x01u << (i & 0x07u));
 398              		.loc 1 540 0
 399 0008 04F00701 		and	r1, r4, #7
 400 000c 0123     		movs	r3, #1
 401 000e 8B40     		lsls	r3, r3, r1
 402              	.LVL47:
 541:Generated_Source\PSoC5/CapSense_CSD_CSHL.c ****         if((CapSense_CSD_sensorEnableMask[pos] & enMask) != 0u)
 403              		.loc 1 541 0
 404 0010 0549     		ldr	r1, .L37
 405 0012 8A5C     		ldrb	r2, [r1, r2]	@ zero_extendqisi2
 406 0014 1342     		tst	r3, r2
 407 0016 02D0     		beq	.L34
 542:Generated_Source\PSoC5/CapSense_CSD_CSHL.c ****         {
 543:Generated_Source\PSoC5/CapSense_CSD_CSHL.c ****             CapSense_CSD_UpdateSensorBaseline(i);
 408              		.loc 1 543 0
 409 0018 2046     		mov	r0, r4
 410 001a FFF7FEFF 		bl	CapSense_CSD_UpdateSensorBaseline
 411              	.LVL48:
 412              	.L34:
 537:Generated_Source\PSoC5/CapSense_CSD_CSHL.c ****     {
 413              		.loc 1 537 0 discriminator 2
 414 001e 0134     		adds	r4, r4, #1
 415              	.LVL49:
 416 0020 E4B2     		uxtb	r4, r4
 417              	.LVL50:
 418              	.L33:
 537:Generated_Source\PSoC5/CapSense_CSD_CSHL.c ****     {
 419              		.loc 1 537 0 is_stmt 0 discriminator 1
 420 0022 062C     		cmp	r4, #6
ARM GAS  C:\Users\aryan\AppData\Local\Temp\ccEOeQjh.s 			page 18


 421 0024 EFD9     		bls	.L35
 544:Generated_Source\PSoC5/CapSense_CSD_CSHL.c ****         }
 545:Generated_Source\PSoC5/CapSense_CSD_CSHL.c ****     }
 546:Generated_Source\PSoC5/CapSense_CSD_CSHL.c **** }
 422              		.loc 1 546 0 is_stmt 1
 423 0026 10BD     		pop	{r4, pc}
 424              	.LVL51:
 425              	.L38:
 426              		.align	2
 427              	.L37:
 428 0028 00000000 		.word	CapSense_CSD_sensorEnableMask
 429              		.cfi_endproc
 430              	.LFE5:
 431              		.size	CapSense_CSD_UpdateEnabledBaselines, .-CapSense_CSD_UpdateEnabledBaselines
 432              		.section	.text.CapSense_CSD_CheckIsSensorActive,"ax",%progbits
 433              		.align	2
 434              		.global	CapSense_CSD_CheckIsSensorActive
 435              		.thumb
 436              		.thumb_func
 437              		.type	CapSense_CSD_CheckIsSensorActive, %function
 438              	CapSense_CSD_CheckIsSensorActive:
 439              	.LFB6:
 547:Generated_Source\PSoC5/CapSense_CSD_CSHL.c **** 
 548:Generated_Source\PSoC5/CapSense_CSD_CSHL.c **** 
 549:Generated_Source\PSoC5/CapSense_CSD_CSHL.c **** /*******************************************************************************
 550:Generated_Source\PSoC5/CapSense_CSD_CSHL.c **** * Function Name: CapSense_CSD_CheckIsSensorActive
 551:Generated_Source\PSoC5/CapSense_CSD_CSHL.c **** ********************************************************************************
 552:Generated_Source\PSoC5/CapSense_CSD_CSHL.c **** *
 553:Generated_Source\PSoC5/CapSense_CSD_CSHL.c **** * Summary:
 554:Generated_Source\PSoC5/CapSense_CSD_CSHL.c **** *  Compares the CapSense_CSD_SensorSignal[sensor] array element to finger
 555:Generated_Source\PSoC5/CapSense_CSD_CSHL.c **** *  threshold of widget it belongs to. The hysteresis and debounce are taken into 
 556:Generated_Source\PSoC5/CapSense_CSD_CSHL.c **** *  account. The hysteresis is added or subtracted from the finger threshold 
 557:Generated_Source\PSoC5/CapSense_CSD_CSHL.c **** *  based on whether the sensor is currently active. 
 558:Generated_Source\PSoC5/CapSense_CSD_CSHL.c **** *  If the sensor is active, the threshold is lowered by the hysteresis amount.
 559:Generated_Source\PSoC5/CapSense_CSD_CSHL.c **** *  If the sensor is inactive, the threshold is raised by the hysteresis amount.
 560:Generated_Source\PSoC5/CapSense_CSD_CSHL.c **** *  The debounce counter added to the sensor active transition.
 561:Generated_Source\PSoC5/CapSense_CSD_CSHL.c **** *  This function updates CapSense_CSD_SensorOnMask[] array element.
 562:Generated_Source\PSoC5/CapSense_CSD_CSHL.c **** *
 563:Generated_Source\PSoC5/CapSense_CSD_CSHL.c **** * Parameters:
 564:Generated_Source\PSoC5/CapSense_CSD_CSHL.c **** *  sensor:  Sensor number.
 565:Generated_Source\PSoC5/CapSense_CSD_CSHL.c **** *
 566:Generated_Source\PSoC5/CapSense_CSD_CSHL.c **** * Return:
 567:Generated_Source\PSoC5/CapSense_CSD_CSHL.c **** *  Returns sensor state 1 if active, 0 if not active.
 568:Generated_Source\PSoC5/CapSense_CSD_CSHL.c **** *
 569:Generated_Source\PSoC5/CapSense_CSD_CSHL.c **** * Global Variables:
 570:Generated_Source\PSoC5/CapSense_CSD_CSHL.c **** *  CapSense_CSD_sensorSignal[]      - used to store diffence between 
 571:Generated_Source\PSoC5/CapSense_CSD_CSHL.c **** *  current value of raw data and previous value of baseline.
 572:Generated_Source\PSoC5/CapSense_CSD_CSHL.c **** *  CapSense_CSD_debounceCounter[]   - used to store current debounce 
 573:Generated_Source\PSoC5/CapSense_CSD_CSHL.c **** *  counter of sensor. Widget which has this parameter are buttons, matrix 
 574:Generated_Source\PSoC5/CapSense_CSD_CSHL.c **** *  buttons, proximity, guard. All other widgets haven't debounce parameter
 575:Generated_Source\PSoC5/CapSense_CSD_CSHL.c **** *  and use the last element of this array with value 0 (it means no debounce).
 576:Generated_Source\PSoC5/CapSense_CSD_CSHL.c **** *  CapSense_CSD_sensorOnMask[] - used to store sensors on/off state.
 577:Generated_Source\PSoC5/CapSense_CSD_CSHL.c **** *  CapSense_CSD_sensorOnMask[0] contains the masked bits for sensors 
 578:Generated_Source\PSoC5/CapSense_CSD_CSHL.c **** *   0 through 7 (sensor 0 is bit 0, sensor 1 is bit 1).
 579:Generated_Source\PSoC5/CapSense_CSD_CSHL.c **** *  CapSense_CSD_sensorEnableMask[1] contains the masked bits for 
 580:Generated_Source\PSoC5/CapSense_CSD_CSHL.c **** *  sensors 8 through 15 (if needed), and so on.
 581:Generated_Source\PSoC5/CapSense_CSD_CSHL.c **** *  0 - sensor is inactive.
ARM GAS  C:\Users\aryan\AppData\Local\Temp\ccEOeQjh.s 			page 19


 582:Generated_Source\PSoC5/CapSense_CSD_CSHL.c **** *  1 - sensor is active.
 583:Generated_Source\PSoC5/CapSense_CSD_CSHL.c **** *
 584:Generated_Source\PSoC5/CapSense_CSD_CSHL.c **** * Reentrant:
 585:Generated_Source\PSoC5/CapSense_CSD_CSHL.c **** *  No
 586:Generated_Source\PSoC5/CapSense_CSD_CSHL.c **** *
 587:Generated_Source\PSoC5/CapSense_CSD_CSHL.c **** *******************************************************************************/
 588:Generated_Source\PSoC5/CapSense_CSD_CSHL.c **** uint8 CapSense_CSD_CheckIsSensorActive(uint8 sensor)
 589:Generated_Source\PSoC5/CapSense_CSD_CSHL.c ****                                   
 590:Generated_Source\PSoC5/CapSense_CSD_CSHL.c **** {
 440              		.loc 1 590 0
 441              		.cfi_startproc
 442              		@ args = 0, pretend = 0, frame = 0
 443              		@ frame_needed = 0, uses_anonymous_args = 0
 444              	.LVL52:
 445 0000 F0B5     		push	{r4, r5, r6, r7, lr}
 446              		.cfi_def_cfa_offset 20
 447              		.cfi_offset 4, -20
 448              		.cfi_offset 5, -16
 449              		.cfi_offset 6, -12
 450              		.cfi_offset 7, -8
 451              		.cfi_offset 14, -4
 591:Generated_Source\PSoC5/CapSense_CSD_CSHL.c ****     uint8 debounceIndex;
 592:Generated_Source\PSoC5/CapSense_CSD_CSHL.c ****     /* Get On/Off mask */
 593:Generated_Source\PSoC5/CapSense_CSD_CSHL.c ****     uint8 pos = (sensor >> 3u);
 452              		.loc 1 593 0
 453 0002 C408     		lsrs	r4, r0, #3
 454              	.LVL53:
 594:Generated_Source\PSoC5/CapSense_CSD_CSHL.c ****     uint8 onMask = 0x01u << (sensor & 0x07u);
 455              		.loc 1 594 0
 456 0004 00F00702 		and	r2, r0, #7
 457 0008 0123     		movs	r3, #1
 458 000a 9340     		lsls	r3, r3, r2
 459 000c DBB2     		uxtb	r3, r3
 460              	.LVL54:
 595:Generated_Source\PSoC5/CapSense_CSD_CSHL.c ****     /* Prepare to find debounce counter index */
 596:Generated_Source\PSoC5/CapSense_CSD_CSHL.c ****     uint8 widget = CapSense_CSD_widgetNumber[sensor];
 461              		.loc 1 596 0
 462 000e 1E4A     		ldr	r2, .L48
 463 0010 125C     		ldrb	r2, [r2, r0]	@ zero_extendqisi2
 464              	.LVL55:
 597:Generated_Source\PSoC5/CapSense_CSD_CSHL.c ****     uint16 fingerThreshold = CapSense_CSD_fingerThreshold[widget];
 465              		.loc 1 597 0
 466 0012 1E4D     		ldr	r5, .L48+4
 467 0014 05EB4206 		add	r6, r5, r2, lsl #1
 468 0018 B789     		ldrh	r7, [r6, #12]
 469              	.LVL56:
 598:Generated_Source\PSoC5/CapSense_CSD_CSHL.c ****     uint16 hysteresis = CapSense_CSD_hysteresis[widget];
 470              		.loc 1 598 0
 471 001a B18A     		ldrh	r1, [r6, #20]
 472              	.LVL57:
 599:Generated_Source\PSoC5/CapSense_CSD_CSHL.c ****     uint8 debounce = CapSense_CSD_debounce[widget];
 473              		.loc 1 599 0
 474 001c AE5C     		ldrb	r6, [r5, r2]	@ zero_extendqisi2
 475              	.LVL58:
 600:Generated_Source\PSoC5/CapSense_CSD_CSHL.c ****     
 601:Generated_Source\PSoC5/CapSense_CSD_CSHL.c ****     if (widget < CapSense_CSD_TOTAL_CENTROIDS_COUNT)
 476              		.loc 1 601 0
ARM GAS  C:\Users\aryan\AppData\Local\Temp\ccEOeQjh.s 			page 20


 477 001e 22B9     		cbnz	r2, .L40
 478              	.LVL59:
 602:Generated_Source\PSoC5/CapSense_CSD_CSHL.c ****     {
 603:Generated_Source\PSoC5/CapSense_CSD_CSHL.c ****         debounceIndex = CapSense_CSD_UNUSED_DEBOUNCE_COUNTER_INDEX;
 604:Generated_Source\PSoC5/CapSense_CSD_CSHL.c ****         CapSense_CSD_debounceCounter[debounceIndex] = 1u;
 479              		.loc 1 604 0
 480 0020 0125     		movs	r5, #1
 481 0022 1B4A     		ldr	r2, .L48+8
 482              	.LVL60:
 483 0024 9570     		strb	r5, [r2, #2]
 603:Generated_Source\PSoC5/CapSense_CSD_CSHL.c ****         CapSense_CSD_debounceCounter[debounceIndex] = 1u;
 484              		.loc 1 603 0
 485 0026 0222     		movs	r2, #2
 486 0028 01E0     		b	.L41
 487              	.LVL61:
 488              	.L40:
 605:Generated_Source\PSoC5/CapSense_CSD_CSHL.c ****     }
 606:Generated_Source\PSoC5/CapSense_CSD_CSHL.c ****     else
 607:Generated_Source\PSoC5/CapSense_CSD_CSHL.c ****     {
 608:Generated_Source\PSoC5/CapSense_CSD_CSHL.c ****         debounceIndex = widget - (CapSense_CSD_END_OF_TOUCH_PAD_INDEX + 1);
 489              		.loc 1 608 0
 490 002a 013A     		subs	r2, r2, #1
 491              	.LVL62:
 492 002c D2B2     		uxtb	r2, r2
 493              	.LVL63:
 494              	.L41:
 609:Generated_Source\PSoC5/CapSense_CSD_CSHL.c ****     }
 610:Generated_Source\PSoC5/CapSense_CSD_CSHL.c **** 
 611:Generated_Source\PSoC5/CapSense_CSD_CSHL.c ****     
 612:Generated_Source\PSoC5/CapSense_CSD_CSHL.c ****     /* Was on */
 613:Generated_Source\PSoC5/CapSense_CSD_CSHL.c ****     if (0u != (CapSense_CSD_sensorOnMask[pos] & onMask))
 495              		.loc 1 613 0
 496 002e 194D     		ldr	r5, .L48+12
 497 0030 2D5D     		ldrb	r5, [r5, r4]	@ zero_extendqisi2
 498 0032 2B42     		tst	r3, r5
 499 0034 0DD0     		beq	.L42
 614:Generated_Source\PSoC5/CapSense_CSD_CSHL.c ****     {
 615:Generated_Source\PSoC5/CapSense_CSD_CSHL.c ****         /* Hysteresis minus */
 616:Generated_Source\PSoC5/CapSense_CSD_CSHL.c ****         if (CapSense_CSD_sensorSignal[sensor] < (fingerThreshold - hysteresis))
 500              		.loc 1 616 0
 501 0036 DFF860E0 		ldr	lr, .L48+16
 502 003a 3EF81000 		ldrh	r0, [lr, r0, lsl #1]
 503              	.LVL64:
 504 003e 791A     		subs	r1, r7, r1
 505              	.LVL65:
 506 0040 8842     		cmp	r0, r1
 507 0042 1BDA     		bge	.L43
 617:Generated_Source\PSoC5/CapSense_CSD_CSHL.c ****         {
 618:Generated_Source\PSoC5/CapSense_CSD_CSHL.c ****             CapSense_CSD_sensorOnMask[pos] &= (uint8)~onMask;
 508              		.loc 1 618 0
 509 0044 25EA0305 		bic	r5, r5, r3
 510 0048 1249     		ldr	r1, .L48+12
 511 004a 0D55     		strb	r5, [r1, r4]
 619:Generated_Source\PSoC5/CapSense_CSD_CSHL.c ****             CapSense_CSD_debounceCounter[debounceIndex] = debounce; 
 512              		.loc 1 619 0
 513 004c 1049     		ldr	r1, .L48+8
 514 004e 8E54     		strb	r6, [r1, r2]
ARM GAS  C:\Users\aryan\AppData\Local\Temp\ccEOeQjh.s 			page 21


 515 0050 14E0     		b	.L43
 516              	.LVL66:
 517              	.L42:
 620:Generated_Source\PSoC5/CapSense_CSD_CSHL.c ****         }
 621:Generated_Source\PSoC5/CapSense_CSD_CSHL.c ****     }
 622:Generated_Source\PSoC5/CapSense_CSD_CSHL.c ****     else    /* Was off */
 623:Generated_Source\PSoC5/CapSense_CSD_CSHL.c ****     {
 624:Generated_Source\PSoC5/CapSense_CSD_CSHL.c ****         /* Hysteresis plus */
 625:Generated_Source\PSoC5/CapSense_CSD_CSHL.c ****         if (CapSense_CSD_sensorSignal[sensor] > (fingerThreshold + hysteresis))
 518              		.loc 1 625 0
 519 0052 DFF844E0 		ldr	lr, .L48+16
 520 0056 3EF81000 		ldrh	r0, [lr, r0, lsl #1]
 521              	.LVL67:
 522 005a 3944     		add	r1, r1, r7
 523              	.LVL68:
 524 005c 8842     		cmp	r0, r1
 525 005e 0BDD     		ble	.L44
 626:Generated_Source\PSoC5/CapSense_CSD_CSHL.c ****         {
 627:Generated_Source\PSoC5/CapSense_CSD_CSHL.c ****             /* Sensor active, decrement debounce counter */
 628:Generated_Source\PSoC5/CapSense_CSD_CSHL.c ****             if (CapSense_CSD_debounceCounter[debounceIndex] <= 1u)
 526              		.loc 1 628 0
 527 0060 1146     		mov	r1, r2
 528 0062 0B48     		ldr	r0, .L48+8
 529 0064 825C     		ldrb	r2, [r0, r2]	@ zero_extendqisi2
 530              	.LVL69:
 531 0066 012A     		cmp	r2, #1
 532 0068 02D8     		bhi	.L45
 629:Generated_Source\PSoC5/CapSense_CSD_CSHL.c ****             {
 630:Generated_Source\PSoC5/CapSense_CSD_CSHL.c ****                 CapSense_CSD_sensorOnMask[pos] |= onMask; 
 533              		.loc 1 630 0
 534 006a 1D43     		orrs	r5, r5, r3
 535 006c 0948     		ldr	r0, .L48+12
 536 006e 0555     		strb	r5, [r0, r4]
 537              	.L45:
 631:Generated_Source\PSoC5/CapSense_CSD_CSHL.c ****             }
 632:Generated_Source\PSoC5/CapSense_CSD_CSHL.c ****             CapSense_CSD_debounceCounter[debounceIndex]--;
 538              		.loc 1 632 0
 539 0070 013A     		subs	r2, r2, #1
 540 0072 0748     		ldr	r0, .L48+8
 541 0074 4254     		strb	r2, [r0, r1]
 542 0076 01E0     		b	.L43
 543              	.LVL70:
 544              	.L44:
 633:Generated_Source\PSoC5/CapSense_CSD_CSHL.c ****         }
 634:Generated_Source\PSoC5/CapSense_CSD_CSHL.c ****         else
 635:Generated_Source\PSoC5/CapSense_CSD_CSHL.c ****         {
 636:Generated_Source\PSoC5/CapSense_CSD_CSHL.c ****             /* Sensor inactive - reset Debounce counter */
 637:Generated_Source\PSoC5/CapSense_CSD_CSHL.c ****             CapSense_CSD_debounceCounter[debounceIndex] = debounce;
 545              		.loc 1 637 0
 546 0078 0549     		ldr	r1, .L48+8
 547 007a 8E54     		strb	r6, [r1, r2]
 548              	.LVL71:
 549              	.L43:
 638:Generated_Source\PSoC5/CapSense_CSD_CSHL.c ****         }
 639:Generated_Source\PSoC5/CapSense_CSD_CSHL.c ****     }
 640:Generated_Source\PSoC5/CapSense_CSD_CSHL.c ****     
 641:Generated_Source\PSoC5/CapSense_CSD_CSHL.c ****     return (((CapSense_CSD_sensorOnMask[pos] & onMask) != 0u) ? 1u : 0u);
ARM GAS  C:\Users\aryan\AppData\Local\Temp\ccEOeQjh.s 			page 22


 550              		.loc 1 641 0
 551 007c 054A     		ldr	r2, .L48+12
 552 007e 105D     		ldrb	r0, [r2, r4]	@ zero_extendqisi2
 553 0080 1840     		ands	r0, r3, r0
 554 0082 00D0     		beq	.L46
 555 0084 0120     		movs	r0, #1
 556              	.L46:
 642:Generated_Source\PSoC5/CapSense_CSD_CSHL.c **** }
 557              		.loc 1 642 0 discriminator 4
 558 0086 F0BD     		pop	{r4, r5, r6, r7, pc}
 559              	.LVL72:
 560              	.L49:
 561              		.align	2
 562              	.L48:
 563 0088 00000000 		.word	CapSense_CSD_widgetNumber
 564 008c 00000000 		.word	.LANCHOR0
 565 0090 00000000 		.word	.LANCHOR1
 566 0094 00000000 		.word	CapSense_CSD_sensorOnMask
 567 0098 00000000 		.word	CapSense_CSD_sensorSignal
 568              		.cfi_endproc
 569              	.LFE6:
 570              		.size	CapSense_CSD_CheckIsSensorActive, .-CapSense_CSD_CheckIsSensorActive
 571              		.section	.text.CapSense_CSD_CheckIsWidgetActive,"ax",%progbits
 572              		.align	2
 573              		.global	CapSense_CSD_CheckIsWidgetActive
 574              		.thumb
 575              		.thumb_func
 576              		.type	CapSense_CSD_CheckIsWidgetActive, %function
 577              	CapSense_CSD_CheckIsWidgetActive:
 578              	.LFB7:
 643:Generated_Source\PSoC5/CapSense_CSD_CSHL.c **** 
 644:Generated_Source\PSoC5/CapSense_CSD_CSHL.c **** 
 645:Generated_Source\PSoC5/CapSense_CSD_CSHL.c **** /*******************************************************************************
 646:Generated_Source\PSoC5/CapSense_CSD_CSHL.c **** * Function Name: CapSense_CSD_CheckIsWidgetActive
 647:Generated_Source\PSoC5/CapSense_CSD_CSHL.c **** ********************************************************************************
 648:Generated_Source\PSoC5/CapSense_CSD_CSHL.c **** *
 649:Generated_Source\PSoC5/CapSense_CSD_CSHL.c **** * Summary:
 650:Generated_Source\PSoC5/CapSense_CSD_CSHL.c **** *  Use function CapSense_CSD_CheckIsSensorActive() to update 
 651:Generated_Source\PSoC5/CapSense_CSD_CSHL.c **** *  CapSense_CSD_sensorOnMask[] for all sensors within the widget.
 652:Generated_Source\PSoC5/CapSense_CSD_CSHL.c **** *  If one of sensors within widget is active the function return that widget is 
 653:Generated_Source\PSoC5/CapSense_CSD_CSHL.c **** *  active.
 654:Generated_Source\PSoC5/CapSense_CSD_CSHL.c **** *  The touch pad and matrix buttons widgets need to have active sensor within 
 655:Generated_Source\PSoC5/CapSense_CSD_CSHL.c **** *  col and row to return widget active status.
 656:Generated_Source\PSoC5/CapSense_CSD_CSHL.c **** *
 657:Generated_Source\PSoC5/CapSense_CSD_CSHL.c **** * Parameters:
 658:Generated_Source\PSoC5/CapSense_CSD_CSHL.c **** *  widget:  widget number.
 659:Generated_Source\PSoC5/CapSense_CSD_CSHL.c **** *
 660:Generated_Source\PSoC5/CapSense_CSD_CSHL.c **** * Return:
 661:Generated_Source\PSoC5/CapSense_CSD_CSHL.c **** *  Returns widget sensor state 1 if one or more sensors within widget is/are 
 662:Generated_Source\PSoC5/CapSense_CSD_CSHL.c **** *  active, 0 if all sensors within widget are inactive.
 663:Generated_Source\PSoC5/CapSense_CSD_CSHL.c **** *
 664:Generated_Source\PSoC5/CapSense_CSD_CSHL.c **** * Reentrant:
 665:Generated_Source\PSoC5/CapSense_CSD_CSHL.c **** *  No
 666:Generated_Source\PSoC5/CapSense_CSD_CSHL.c **** *
 667:Generated_Source\PSoC5/CapSense_CSD_CSHL.c **** *******************************************************************************/
 668:Generated_Source\PSoC5/CapSense_CSD_CSHL.c **** uint8 CapSense_CSD_CheckIsWidgetActive(uint8 widget)
 669:Generated_Source\PSoC5/CapSense_CSD_CSHL.c ****                                  
ARM GAS  C:\Users\aryan\AppData\Local\Temp\ccEOeQjh.s 			page 23


 670:Generated_Source\PSoC5/CapSense_CSD_CSHL.c **** {
 579              		.loc 1 670 0
 580              		.cfi_startproc
 581              		@ args = 0, pretend = 0, frame = 0
 582              		@ frame_needed = 0, uses_anonymous_args = 0
 583              	.LVL73:
 584 0000 70B5     		push	{r4, r5, r6, lr}
 585              		.cfi_def_cfa_offset 16
 586              		.cfi_offset 4, -16
 587              		.cfi_offset 5, -12
 588              		.cfi_offset 6, -8
 589              		.cfi_offset 14, -4
 671:Generated_Source\PSoC5/CapSense_CSD_CSHL.c ****     uint8 rawIndex = CapSense_CSD_rawDataIndex[widget];
 590              		.loc 1 671 0
 591 0002 094B     		ldr	r3, .L55
 592 0004 1844     		add	r0, r0, r3
 593              	.LVL74:
 594 0006 047F     		ldrb	r4, [r0, #28]	@ zero_extendqisi2
 595              	.LVL75:
 672:Generated_Source\PSoC5/CapSense_CSD_CSHL.c ****     uint8 numberOfSensors = CapSense_CSD_numberOfSensors[widget] + rawIndex;
 596              		.loc 1 672 0
 597 0008 90F82050 		ldrb	r5, [r0, #32]	@ zero_extendqisi2
 598 000c 2544     		add	r5, r5, r4
 599 000e EDB2     		uxtb	r5, r5
 600              	.LVL76:
 673:Generated_Source\PSoC5/CapSense_CSD_CSHL.c ****     uint8 state = 0u;
 601              		.loc 1 673 0
 602 0010 0026     		movs	r6, #0
 603              	.LVL77:
 604              	.L52:
 674:Generated_Source\PSoC5/CapSense_CSD_CSHL.c **** 
 675:Generated_Source\PSoC5/CapSense_CSD_CSHL.c ****     /* Check all sensors of the widget */
 676:Generated_Source\PSoC5/CapSense_CSD_CSHL.c ****     do
 677:Generated_Source\PSoC5/CapSense_CSD_CSHL.c ****     {
 678:Generated_Source\PSoC5/CapSense_CSD_CSHL.c ****         if(CapSense_CSD_CheckIsSensorActive(rawIndex) != 0u)
 605              		.loc 1 678 0
 606 0012 2046     		mov	r0, r4
 607 0014 FFF7FEFF 		bl	CapSense_CSD_CheckIsSensorActive
 608              	.LVL78:
 609 0018 00B1     		cbz	r0, .L51
 679:Generated_Source\PSoC5/CapSense_CSD_CSHL.c ****         {
 680:Generated_Source\PSoC5/CapSense_CSD_CSHL.c ****             state = CapSense_CSD_SENSOR_1_IS_ACTIVE;
 610              		.loc 1 680 0
 611 001a 0126     		movs	r6, #1
 612              	.LVL79:
 613              	.L51:
 681:Generated_Source\PSoC5/CapSense_CSD_CSHL.c ****         }
 682:Generated_Source\PSoC5/CapSense_CSD_CSHL.c ****         rawIndex++;
 614              		.loc 1 682 0
 615 001c 0134     		adds	r4, r4, #1
 616              	.LVL80:
 617 001e E4B2     		uxtb	r4, r4
 618              	.LVL81:
 683:Generated_Source\PSoC5/CapSense_CSD_CSHL.c ****     }
 684:Generated_Source\PSoC5/CapSense_CSD_CSHL.c ****     while(rawIndex < numberOfSensors);
 619              		.loc 1 684 0
 620 0020 A542     		cmp	r5, r4
ARM GAS  C:\Users\aryan\AppData\Local\Temp\ccEOeQjh.s 			page 24


 621 0022 F6D8     		bhi	.L52
 685:Generated_Source\PSoC5/CapSense_CSD_CSHL.c ****     
 686:Generated_Source\PSoC5/CapSense_CSD_CSHL.c **** 
 687:Generated_Source\PSoC5/CapSense_CSD_CSHL.c ****     
 688:Generated_Source\PSoC5/CapSense_CSD_CSHL.c ****     return (state);
 689:Generated_Source\PSoC5/CapSense_CSD_CSHL.c **** }
 622              		.loc 1 689 0
 623 0024 3046     		mov	r0, r6
 624 0026 70BD     		pop	{r4, r5, r6, pc}
 625              	.LVL82:
 626              	.L56:
 627              		.align	2
 628              	.L55:
 629 0028 00000000 		.word	.LANCHOR0
 630              		.cfi_endproc
 631              	.LFE7:
 632              		.size	CapSense_CSD_CheckIsWidgetActive, .-CapSense_CSD_CheckIsWidgetActive
 633              		.section	.text.CapSense_CSD_CheckIsAnyWidgetActive,"ax",%progbits
 634              		.align	2
 635              		.global	CapSense_CSD_CheckIsAnyWidgetActive
 636              		.thumb
 637              		.thumb_func
 638              		.type	CapSense_CSD_CheckIsAnyWidgetActive, %function
 639              	CapSense_CSD_CheckIsAnyWidgetActive:
 640              	.LFB8:
 690:Generated_Source\PSoC5/CapSense_CSD_CSHL.c **** 
 691:Generated_Source\PSoC5/CapSense_CSD_CSHL.c **** 
 692:Generated_Source\PSoC5/CapSense_CSD_CSHL.c **** /*******************************************************************************
 693:Generated_Source\PSoC5/CapSense_CSD_CSHL.c **** * Function Name: CapSense_CSD_CheckIsAnyWidgetActive
 694:Generated_Source\PSoC5/CapSense_CSD_CSHL.c **** ********************************************************************************
 695:Generated_Source\PSoC5/CapSense_CSD_CSHL.c **** *
 696:Generated_Source\PSoC5/CapSense_CSD_CSHL.c **** * Summary:
 697:Generated_Source\PSoC5/CapSense_CSD_CSHL.c **** *  Compares all sensors of the CapSense_CSD_signal[] array to their finger 
 698:Generated_Source\PSoC5/CapSense_CSD_CSHL.c **** *  threshold. Calls CapSense_CSD_CheckIsWidgetActive() for each widget so 
 699:Generated_Source\PSoC5/CapSense_CSD_CSHL.c **** *  the CapSense_CSD_SensorOnMask[] array is up to date after calling this 
 700:Generated_Source\PSoC5/CapSense_CSD_CSHL.c **** *  function.
 701:Generated_Source\PSoC5/CapSense_CSD_CSHL.c **** *
 702:Generated_Source\PSoC5/CapSense_CSD_CSHL.c **** * Parameters:
 703:Generated_Source\PSoC5/CapSense_CSD_CSHL.c **** *  widget:  widget number.
 704:Generated_Source\PSoC5/CapSense_CSD_CSHL.c **** *
 705:Generated_Source\PSoC5/CapSense_CSD_CSHL.c **** * Return:
 706:Generated_Source\PSoC5/CapSense_CSD_CSHL.c **** *  Returns 1 if any widget is active, 0 none of widgets are active.
 707:Generated_Source\PSoC5/CapSense_CSD_CSHL.c **** *
 708:Generated_Source\PSoC5/CapSense_CSD_CSHL.c **** * Reentrant:
 709:Generated_Source\PSoC5/CapSense_CSD_CSHL.c **** *  No
 710:Generated_Source\PSoC5/CapSense_CSD_CSHL.c **** *
 711:Generated_Source\PSoC5/CapSense_CSD_CSHL.c **** *******************************************************************************/
 712:Generated_Source\PSoC5/CapSense_CSD_CSHL.c **** uint8 CapSense_CSD_CheckIsAnyWidgetActive(void)
 713:Generated_Source\PSoC5/CapSense_CSD_CSHL.c ****                                  
 714:Generated_Source\PSoC5/CapSense_CSD_CSHL.c **** {
 641              		.loc 1 714 0
 642              		.cfi_startproc
 643              		@ args = 0, pretend = 0, frame = 0
 644              		@ frame_needed = 0, uses_anonymous_args = 0
 645 0000 38B5     		push	{r3, r4, r5, lr}
 646              		.cfi_def_cfa_offset 16
 647              		.cfi_offset 3, -16
ARM GAS  C:\Users\aryan\AppData\Local\Temp\ccEOeQjh.s 			page 25


 648              		.cfi_offset 4, -12
 649              		.cfi_offset 5, -8
 650              		.cfi_offset 14, -4
 651              	.LVL83:
 715:Generated_Source\PSoC5/CapSense_CSD_CSHL.c ****     uint8 i;
 716:Generated_Source\PSoC5/CapSense_CSD_CSHL.c ****     uint8 state = 0u;
 652              		.loc 1 716 0
 653 0002 0025     		movs	r5, #0
 717:Generated_Source\PSoC5/CapSense_CSD_CSHL.c ****     
 718:Generated_Source\PSoC5/CapSense_CSD_CSHL.c ****     for(i = 0u; i < CapSense_CSD_TOTAL_WIDGET_COUNT; i++)
 654              		.loc 1 718 0
 655 0004 2C46     		mov	r4, r5
 656 0006 06E0     		b	.L58
 657              	.LVL84:
 658              	.L60:
 719:Generated_Source\PSoC5/CapSense_CSD_CSHL.c ****     {
 720:Generated_Source\PSoC5/CapSense_CSD_CSHL.c ****         if (CapSense_CSD_CheckIsWidgetActive(i) != 0u)
 659              		.loc 1 720 0
 660 0008 2046     		mov	r0, r4
 661 000a FFF7FEFF 		bl	CapSense_CSD_CheckIsWidgetActive
 662              	.LVL85:
 663 000e 00B1     		cbz	r0, .L59
 721:Generated_Source\PSoC5/CapSense_CSD_CSHL.c ****         {
 722:Generated_Source\PSoC5/CapSense_CSD_CSHL.c ****             state = CapSense_CSD_WIDGET_IS_ACTIVE;
 664              		.loc 1 722 0
 665 0010 0125     		movs	r5, #1
 666              	.LVL86:
 667              	.L59:
 718:Generated_Source\PSoC5/CapSense_CSD_CSHL.c ****     {
 668              		.loc 1 718 0 discriminator 2
 669 0012 0134     		adds	r4, r4, #1
 670              	.LVL87:
 671 0014 E4B2     		uxtb	r4, r4
 672              	.LVL88:
 673              	.L58:
 718:Generated_Source\PSoC5/CapSense_CSD_CSHL.c ****     {
 674              		.loc 1 718 0 is_stmt 0 discriminator 1
 675 0016 022C     		cmp	r4, #2
 676 0018 F6D9     		bls	.L60
 723:Generated_Source\PSoC5/CapSense_CSD_CSHL.c ****         }
 724:Generated_Source\PSoC5/CapSense_CSD_CSHL.c ****     }
 725:Generated_Source\PSoC5/CapSense_CSD_CSHL.c ****     
 726:Generated_Source\PSoC5/CapSense_CSD_CSHL.c **** 
 727:Generated_Source\PSoC5/CapSense_CSD_CSHL.c ****     return (state);
 728:Generated_Source\PSoC5/CapSense_CSD_CSHL.c **** }
 677              		.loc 1 728 0 is_stmt 1
 678 001a 2846     		mov	r0, r5
 679 001c 38BD     		pop	{r3, r4, r5, pc}
 680              		.cfi_endproc
 681              	.LFE8:
 682              		.size	CapSense_CSD_CheckIsAnyWidgetActive, .-CapSense_CSD_CheckIsAnyWidgetActive
 683 001e 00BF     		.section	.text.CapSense_CSD_EnableWidget,"ax",%progbits
 684              		.align	2
 685              		.global	CapSense_CSD_EnableWidget
 686              		.thumb
 687              		.thumb_func
 688              		.type	CapSense_CSD_EnableWidget, %function
ARM GAS  C:\Users\aryan\AppData\Local\Temp\ccEOeQjh.s 			page 26


 689              	CapSense_CSD_EnableWidget:
 690              	.LFB9:
 729:Generated_Source\PSoC5/CapSense_CSD_CSHL.c **** 
 730:Generated_Source\PSoC5/CapSense_CSD_CSHL.c **** 
 731:Generated_Source\PSoC5/CapSense_CSD_CSHL.c **** /*******************************************************************************
 732:Generated_Source\PSoC5/CapSense_CSD_CSHL.c **** * Function Name: CapSense_CSD_EnableWidget
 733:Generated_Source\PSoC5/CapSense_CSD_CSHL.c **** ********************************************************************************
 734:Generated_Source\PSoC5/CapSense_CSD_CSHL.c **** *
 735:Generated_Source\PSoC5/CapSense_CSD_CSHL.c **** * Summary:
 736:Generated_Source\PSoC5/CapSense_CSD_CSHL.c **** *  Enable all widget elements (sensors) to scanning process.
 737:Generated_Source\PSoC5/CapSense_CSD_CSHL.c **** *
 738:Generated_Source\PSoC5/CapSense_CSD_CSHL.c **** * Parameters:
 739:Generated_Source\PSoC5/CapSense_CSD_CSHL.c **** *  widget:  widget number.
 740:Generated_Source\PSoC5/CapSense_CSD_CSHL.c **** *
 741:Generated_Source\PSoC5/CapSense_CSD_CSHL.c **** * Return:
 742:Generated_Source\PSoC5/CapSense_CSD_CSHL.c **** *  None
 743:Generated_Source\PSoC5/CapSense_CSD_CSHL.c **** *
 744:Generated_Source\PSoC5/CapSense_CSD_CSHL.c **** * Global Variables:
 745:Generated_Source\PSoC5/CapSense_CSD_CSHL.c **** *  CapSense_CSD_sensorEnableMask[] - used to store the sensor scanning 
 746:Generated_Source\PSoC5/CapSense_CSD_CSHL.c **** *  state.
 747:Generated_Source\PSoC5/CapSense_CSD_CSHL.c **** *  CapSense_CSD_sensorEnableMask[0] contains the masked bits for sensors 
 748:Generated_Source\PSoC5/CapSense_CSD_CSHL.c **** *  0 through 7 (sensor 0 is bit 0, sensor 1 is bit 1).
 749:Generated_Source\PSoC5/CapSense_CSD_CSHL.c **** *  CapSense_CSD_sensorEnableMask[1] contains the masked bits for 
 750:Generated_Source\PSoC5/CapSense_CSD_CSHL.c **** *  sensors 8 through 15 (if needed), and so on.
 751:Generated_Source\PSoC5/CapSense_CSD_CSHL.c **** *  0 - sensor doesn't scan by CapSense_CSD_ScanEnabledWidgets().
 752:Generated_Source\PSoC5/CapSense_CSD_CSHL.c **** *  1 - sensor scans by CapSense_CSD_ScanEnabledWidgets().
 753:Generated_Source\PSoC5/CapSense_CSD_CSHL.c **** *
 754:Generated_Source\PSoC5/CapSense_CSD_CSHL.c **** * Reentrant:
 755:Generated_Source\PSoC5/CapSense_CSD_CSHL.c **** *  No
 756:Generated_Source\PSoC5/CapSense_CSD_CSHL.c **** *
 757:Generated_Source\PSoC5/CapSense_CSD_CSHL.c **** *******************************************************************************/
 758:Generated_Source\PSoC5/CapSense_CSD_CSHL.c **** void CapSense_CSD_EnableWidget(uint8 widget)
 759:Generated_Source\PSoC5/CapSense_CSD_CSHL.c ****                                    
 760:Generated_Source\PSoC5/CapSense_CSD_CSHL.c **** {
 691              		.loc 1 760 0
 692              		.cfi_startproc
 693              		@ args = 0, pretend = 0, frame = 0
 694              		@ frame_needed = 0, uses_anonymous_args = 0
 695              		@ link register save eliminated.
 696              	.LVL89:
 697 0000 30B4     		push	{r4, r5}
 698              		.cfi_def_cfa_offset 8
 699              		.cfi_offset 4, -8
 700              		.cfi_offset 5, -4
 761:Generated_Source\PSoC5/CapSense_CSD_CSHL.c ****     uint8 pos;
 762:Generated_Source\PSoC5/CapSense_CSD_CSHL.c ****     uint8 enMask;
 763:Generated_Source\PSoC5/CapSense_CSD_CSHL.c ****     uint8 rawIndex = CapSense_CSD_rawDataIndex[widget];
 701              		.loc 1 763 0
 702 0002 0B4B     		ldr	r3, .L66
 703 0004 1844     		add	r0, r0, r3
 704              	.LVL90:
 705 0006 037F     		ldrb	r3, [r0, #28]	@ zero_extendqisi2
 706              	.LVL91:
 764:Generated_Source\PSoC5/CapSense_CSD_CSHL.c ****     uint8 numberOfSensors = CapSense_CSD_numberOfSensors[widget] + rawIndex;
 707              		.loc 1 764 0
 708 0008 90F82050 		ldrb	r5, [r0, #32]	@ zero_extendqisi2
 709 000c 1D44     		add	r5, r5, r3
ARM GAS  C:\Users\aryan\AppData\Local\Temp\ccEOeQjh.s 			page 27


 710 000e EDB2     		uxtb	r5, r5
 711              	.LVL92:
 712              	.L64:
 765:Generated_Source\PSoC5/CapSense_CSD_CSHL.c ****     
 766:Generated_Source\PSoC5/CapSense_CSD_CSHL.c ****     /* Enable all sensors of the widget */
 767:Generated_Source\PSoC5/CapSense_CSD_CSHL.c ****     do
 768:Generated_Source\PSoC5/CapSense_CSD_CSHL.c ****     {
 769:Generated_Source\PSoC5/CapSense_CSD_CSHL.c ****         pos = (rawIndex >> 3u);
 713              		.loc 1 769 0 discriminator 1
 714 0010 D808     		lsrs	r0, r3, #3
 715              	.LVL93:
 770:Generated_Source\PSoC5/CapSense_CSD_CSHL.c ****         enMask = 0x01u << (rawIndex & 0x07u);
 716              		.loc 1 770 0 discriminator 1
 717 0012 03F00701 		and	r1, r3, #7
 718 0016 0122     		movs	r2, #1
 719 0018 8A40     		lsls	r2, r2, r1
 720 001a D2B2     		uxtb	r2, r2
 721              	.LVL94:
 771:Generated_Source\PSoC5/CapSense_CSD_CSHL.c ****         
 772:Generated_Source\PSoC5/CapSense_CSD_CSHL.c ****         CapSense_CSD_sensorEnableMask[pos] |= enMask;
 722              		.loc 1 772 0 discriminator 1
 723 001c 054C     		ldr	r4, .L66+4
 724 001e 215C     		ldrb	r1, [r4, r0]	@ zero_extendqisi2
 725 0020 0A43     		orrs	r2, r2, r1
 726              	.LVL95:
 727 0022 2254     		strb	r2, [r4, r0]
 773:Generated_Source\PSoC5/CapSense_CSD_CSHL.c ****         rawIndex++;
 728              		.loc 1 773 0 discriminator 1
 729 0024 0133     		adds	r3, r3, #1
 730              	.LVL96:
 731 0026 DBB2     		uxtb	r3, r3
 732              	.LVL97:
 774:Generated_Source\PSoC5/CapSense_CSD_CSHL.c ****     }
 775:Generated_Source\PSoC5/CapSense_CSD_CSHL.c ****     while(rawIndex < numberOfSensors);
 733              		.loc 1 775 0 discriminator 1
 734 0028 9D42     		cmp	r5, r3
 735 002a F1D8     		bhi	.L64
 776:Generated_Source\PSoC5/CapSense_CSD_CSHL.c ****     
 777:Generated_Source\PSoC5/CapSense_CSD_CSHL.c **** 
 778:Generated_Source\PSoC5/CapSense_CSD_CSHL.c **** }
 736              		.loc 1 778 0
 737 002c 30BC     		pop	{r4, r5}
 738              		.cfi_restore 5
 739              		.cfi_restore 4
 740              		.cfi_def_cfa_offset 0
 741              	.LVL98:
 742 002e 7047     		bx	lr
 743              	.L67:
 744              		.align	2
 745              	.L66:
 746 0030 00000000 		.word	.LANCHOR0
 747 0034 00000000 		.word	CapSense_CSD_sensorEnableMask
 748              		.cfi_endproc
 749              	.LFE9:
 750              		.size	CapSense_CSD_EnableWidget, .-CapSense_CSD_EnableWidget
 751              		.section	.text.CapSense_CSD_DisableWidget,"ax",%progbits
 752              		.align	2
ARM GAS  C:\Users\aryan\AppData\Local\Temp\ccEOeQjh.s 			page 28


 753              		.global	CapSense_CSD_DisableWidget
 754              		.thumb
 755              		.thumb_func
 756              		.type	CapSense_CSD_DisableWidget, %function
 757              	CapSense_CSD_DisableWidget:
 758              	.LFB10:
 779:Generated_Source\PSoC5/CapSense_CSD_CSHL.c **** 
 780:Generated_Source\PSoC5/CapSense_CSD_CSHL.c **** 
 781:Generated_Source\PSoC5/CapSense_CSD_CSHL.c **** /*******************************************************************************
 782:Generated_Source\PSoC5/CapSense_CSD_CSHL.c **** * Function Name: CapSense_CSD_DisableWidget
 783:Generated_Source\PSoC5/CapSense_CSD_CSHL.c **** ********************************************************************************
 784:Generated_Source\PSoC5/CapSense_CSD_CSHL.c **** *
 785:Generated_Source\PSoC5/CapSense_CSD_CSHL.c **** * Summary:
 786:Generated_Source\PSoC5/CapSense_CSD_CSHL.c **** *  Disable all widget elements (sensors) from scanning process.
 787:Generated_Source\PSoC5/CapSense_CSD_CSHL.c **** *
 788:Generated_Source\PSoC5/CapSense_CSD_CSHL.c **** * Parameters:
 789:Generated_Source\PSoC5/CapSense_CSD_CSHL.c **** *  widget:  widget number.
 790:Generated_Source\PSoC5/CapSense_CSD_CSHL.c **** *
 791:Generated_Source\PSoC5/CapSense_CSD_CSHL.c **** * Return:
 792:Generated_Source\PSoC5/CapSense_CSD_CSHL.c **** *  None
 793:Generated_Source\PSoC5/CapSense_CSD_CSHL.c **** *
 794:Generated_Source\PSoC5/CapSense_CSD_CSHL.c **** * Global Variables:
 795:Generated_Source\PSoC5/CapSense_CSD_CSHL.c **** *  CapSense_CSD_sensorEnableMask[] - used to store the sensor scanning 
 796:Generated_Source\PSoC5/CapSense_CSD_CSHL.c **** *  state.
 797:Generated_Source\PSoC5/CapSense_CSD_CSHL.c **** *  CapSense_CSD_sensorEnableMask[0] contains the masked bits for sensors 
 798:Generated_Source\PSoC5/CapSense_CSD_CSHL.c **** *  0 through 7 (sensor 0 is bit 0, sensor 1 is bit 1).
 799:Generated_Source\PSoC5/CapSense_CSD_CSHL.c **** *  CapSense_CSD_sensorEnableMask[1] contains the masked bits for 
 800:Generated_Source\PSoC5/CapSense_CSD_CSHL.c **** *  sensors 8 through 15 (if needed), and so on.
 801:Generated_Source\PSoC5/CapSense_CSD_CSHL.c **** *  0 - sensor doesn't scan by CapSense_CSD_ScanEnabledWidgets().
 802:Generated_Source\PSoC5/CapSense_CSD_CSHL.c **** *  1 - sensor scans by CapSense_CSD_ScanEnabledWidgets().
 803:Generated_Source\PSoC5/CapSense_CSD_CSHL.c **** *
 804:Generated_Source\PSoC5/CapSense_CSD_CSHL.c **** * Reentrant:
 805:Generated_Source\PSoC5/CapSense_CSD_CSHL.c **** *  No
 806:Generated_Source\PSoC5/CapSense_CSD_CSHL.c **** *
 807:Generated_Source\PSoC5/CapSense_CSD_CSHL.c **** *******************************************************************************/
 808:Generated_Source\PSoC5/CapSense_CSD_CSHL.c **** void CapSense_CSD_DisableWidget(uint8 widget)
 809:Generated_Source\PSoC5/CapSense_CSD_CSHL.c ****                                     
 810:Generated_Source\PSoC5/CapSense_CSD_CSHL.c **** {
 759              		.loc 1 810 0
 760              		.cfi_startproc
 761              		@ args = 0, pretend = 0, frame = 0
 762              		@ frame_needed = 0, uses_anonymous_args = 0
 763              		@ link register save eliminated.
 764              	.LVL99:
 765 0000 30B4     		push	{r4, r5}
 766              		.cfi_def_cfa_offset 8
 767              		.cfi_offset 4, -8
 768              		.cfi_offset 5, -4
 811:Generated_Source\PSoC5/CapSense_CSD_CSHL.c ****     uint8 pos;
 812:Generated_Source\PSoC5/CapSense_CSD_CSHL.c ****     uint8 enMask;
 813:Generated_Source\PSoC5/CapSense_CSD_CSHL.c ****     uint8 rawIndex = CapSense_CSD_rawDataIndex[widget];
 769              		.loc 1 813 0
 770 0002 0C4B     		ldr	r3, .L71
 771 0004 1844     		add	r0, r0, r3
 772              	.LVL100:
 773 0006 037F     		ldrb	r3, [r0, #28]	@ zero_extendqisi2
 774              	.LVL101:
ARM GAS  C:\Users\aryan\AppData\Local\Temp\ccEOeQjh.s 			page 29


 814:Generated_Source\PSoC5/CapSense_CSD_CSHL.c ****     uint8 numberOfSensors = CapSense_CSD_numberOfSensors[widget] + rawIndex;
 775              		.loc 1 814 0
 776 0008 90F82050 		ldrb	r5, [r0, #32]	@ zero_extendqisi2
 777 000c 1D44     		add	r5, r5, r3
 778 000e EDB2     		uxtb	r5, r5
 779              	.LVL102:
 780              	.L69:
 815:Generated_Source\PSoC5/CapSense_CSD_CSHL.c ****    
 816:Generated_Source\PSoC5/CapSense_CSD_CSHL.c ****     /* Disable all sensors of the widget */
 817:Generated_Source\PSoC5/CapSense_CSD_CSHL.c ****     do
 818:Generated_Source\PSoC5/CapSense_CSD_CSHL.c ****     {
 819:Generated_Source\PSoC5/CapSense_CSD_CSHL.c ****         pos = (rawIndex >> 3u);
 781              		.loc 1 819 0 discriminator 1
 782 0010 D808     		lsrs	r0, r3, #3
 783              	.LVL103:
 820:Generated_Source\PSoC5/CapSense_CSD_CSHL.c ****         enMask = 0x01u << (rawIndex & 0x07u);
 784              		.loc 1 820 0 discriminator 1
 785 0012 03F00701 		and	r1, r3, #7
 786 0016 0122     		movs	r2, #1
 787 0018 8A40     		lsls	r2, r2, r1
 788 001a D2B2     		uxtb	r2, r2
 789              	.LVL104:
 821:Generated_Source\PSoC5/CapSense_CSD_CSHL.c ****         
 822:Generated_Source\PSoC5/CapSense_CSD_CSHL.c ****         CapSense_CSD_sensorEnableMask[pos] &= (uint8)~enMask;
 790              		.loc 1 822 0 discriminator 1
 791 001c 064C     		ldr	r4, .L71+4
 792 001e 215C     		ldrb	r1, [r4, r0]	@ zero_extendqisi2
 793 0020 21EA0202 		bic	r2, r1, r2
 794              	.LVL105:
 795 0024 2254     		strb	r2, [r4, r0]
 823:Generated_Source\PSoC5/CapSense_CSD_CSHL.c ****         rawIndex++;
 796              		.loc 1 823 0 discriminator 1
 797 0026 0133     		adds	r3, r3, #1
 798              	.LVL106:
 799 0028 DBB2     		uxtb	r3, r3
 800              	.LVL107:
 824:Generated_Source\PSoC5/CapSense_CSD_CSHL.c ****     }
 825:Generated_Source\PSoC5/CapSense_CSD_CSHL.c ****     while(rawIndex < numberOfSensors);
 801              		.loc 1 825 0 discriminator 1
 802 002a 9D42     		cmp	r5, r3
 803 002c F0D8     		bhi	.L69
 826:Generated_Source\PSoC5/CapSense_CSD_CSHL.c ****     
 827:Generated_Source\PSoC5/CapSense_CSD_CSHL.c **** 
 828:Generated_Source\PSoC5/CapSense_CSD_CSHL.c **** }
 804              		.loc 1 828 0
 805 002e 30BC     		pop	{r4, r5}
 806              		.cfi_restore 5
 807              		.cfi_restore 4
 808              		.cfi_def_cfa_offset 0
 809              	.LVL108:
 810 0030 7047     		bx	lr
 811              	.L72:
 812 0032 00BF     		.align	2
 813              	.L71:
 814 0034 00000000 		.word	.LANCHOR0
 815 0038 00000000 		.word	CapSense_CSD_sensorEnableMask
 816              		.cfi_endproc
ARM GAS  C:\Users\aryan\AppData\Local\Temp\ccEOeQjh.s 			page 30


 817              	.LFE10:
 818              		.size	CapSense_CSD_DisableWidget, .-CapSense_CSD_DisableWidget
 819              		.section	.text.CapSense_CSD_FindMaximum,"ax",%progbits
 820              		.align	2
 821              		.global	CapSense_CSD_FindMaximum
 822              		.thumb
 823              		.thumb_func
 824              		.type	CapSense_CSD_FindMaximum, %function
 825              	CapSense_CSD_FindMaximum:
 826              	.LFB11:
 829:Generated_Source\PSoC5/CapSense_CSD_CSHL.c **** #if(CapSense_CSD_TOTAL_CENTROIDS_COUNT)
 830:Generated_Source\PSoC5/CapSense_CSD_CSHL.c ****     /*******************************************************************************
 831:Generated_Source\PSoC5/CapSense_CSD_CSHL.c ****     * Function Name: CapSense_CSD_FindMaximum
 832:Generated_Source\PSoC5/CapSense_CSD_CSHL.c ****     ********************************************************************************
 833:Generated_Source\PSoC5/CapSense_CSD_CSHL.c ****     *
 834:Generated_Source\PSoC5/CapSense_CSD_CSHL.c ****     * Summary:
 835:Generated_Source\PSoC5/CapSense_CSD_CSHL.c ****     *  Finds index of maximum element within defined centroid. Checks 
 836:Generated_Source\PSoC5/CapSense_CSD_CSHL.c ****     *  CapSense_CSD_SensorSignal[] within defined cenrtoid and 
 837:Generated_Source\PSoC5/CapSense_CSD_CSHL.c ****     *  returns index of maximum element. The values below finger threshold are 
 838:Generated_Source\PSoC5/CapSense_CSD_CSHL.c ****     *  ignored.
 839:Generated_Source\PSoC5/CapSense_CSD_CSHL.c ****     *  The centrod defines by offset of first element and number of elements - count.
 840:Generated_Source\PSoC5/CapSense_CSD_CSHL.c ****     *  The diplexed centroid requires at least consecutive two elements above
 841:Generated_Source\PSoC5/CapSense_CSD_CSHL.c ****     *  FingerThreshold to find index of maximum element.
 842:Generated_Source\PSoC5/CapSense_CSD_CSHL.c ****     * 
 843:Generated_Source\PSoC5/CapSense_CSD_CSHL.c ****     * Parameters:
 844:Generated_Source\PSoC5/CapSense_CSD_CSHL.c ****     *  offset:  Start index of cetroid in CapSense_CSD_sensorSignal[] array.
 845:Generated_Source\PSoC5/CapSense_CSD_CSHL.c ****     *  count:   number of elements within centroid.
 846:Generated_Source\PSoC5/CapSense_CSD_CSHL.c ****     *  fingerThreshold:  Finger threshould.
 847:Generated_Source\PSoC5/CapSense_CSD_CSHL.c ****     *  diplex:   pointer to diplex table.
 848:Generated_Source\PSoC5/CapSense_CSD_CSHL.c ****     * 
 849:Generated_Source\PSoC5/CapSense_CSD_CSHL.c ****     * Return:
 850:Generated_Source\PSoC5/CapSense_CSD_CSHL.c ****     *  Returns index of maximum element within defined centroid.
 851:Generated_Source\PSoC5/CapSense_CSD_CSHL.c ****     *  If index of maximum element doesn't find the 0xFF returns.
 852:Generated_Source\PSoC5/CapSense_CSD_CSHL.c ****     * 
 853:Generated_Source\PSoC5/CapSense_CSD_CSHL.c ****     *******************************************************************************/
 854:Generated_Source\PSoC5/CapSense_CSD_CSHL.c ****     #if (CapSense_CSD_IS_DIPLEX_SLIDER)
 855:Generated_Source\PSoC5/CapSense_CSD_CSHL.c ****         uint8 CapSense_CSD_FindMaximum(uint8 offset, uint8 count, uint16 fingerThreshold, const uin
 856:Generated_Source\PSoC5/CapSense_CSD_CSHL.c **** 	                                       
 857:Generated_Source\PSoC5/CapSense_CSD_CSHL.c ****     #else 
 858:Generated_Source\PSoC5/CapSense_CSD_CSHL.c ****         uint8 CapSense_CSD_FindMaximum(uint8 offset, uint8 count, uint16 fingerThreshold)
 859:Generated_Source\PSoC5/CapSense_CSD_CSHL.c **** 	                                       
 860:Generated_Source\PSoC5/CapSense_CSD_CSHL.c ****     #endif /* (CapSense_CSD_IS_DIPLEX_SLIDER) */
 861:Generated_Source\PSoC5/CapSense_CSD_CSHL.c ****     {
 827              		.loc 1 861 0
 828              		.cfi_startproc
 829              		@ args = 0, pretend = 0, frame = 0
 830              		@ frame_needed = 0, uses_anonymous_args = 0
 831              		@ link register save eliminated.
 832              	.LVL109:
 833 0000 70B4     		push	{r4, r5, r6}
 834              		.cfi_def_cfa_offset 12
 835              		.cfi_offset 4, -12
 836              		.cfi_offset 5, -8
 837              		.cfi_offset 6, -4
 838              	.LVL110:
 862:Generated_Source\PSoC5/CapSense_CSD_CSHL.c ****         uint8 i;
 863:Generated_Source\PSoC5/CapSense_CSD_CSHL.c ****         #if (CapSense_CSD_IS_DIPLEX_SLIDER)        
ARM GAS  C:\Users\aryan\AppData\Local\Temp\ccEOeQjh.s 			page 31


 864:Generated_Source\PSoC5/CapSense_CSD_CSHL.c ****             uint8 curPos = 0u;
 865:Generated_Source\PSoC5/CapSense_CSD_CSHL.c ****             /* No centroid at the Start */
 866:Generated_Source\PSoC5/CapSense_CSD_CSHL.c ****             uint8 curCntrdSize = 0u;
 867:Generated_Source\PSoC5/CapSense_CSD_CSHL.c ****             uint8 curCtrdStartPos = 0xFFu;
 868:Generated_Source\PSoC5/CapSense_CSD_CSHL.c ****             /* The biggset centroid is zero */
 869:Generated_Source\PSoC5/CapSense_CSD_CSHL.c ****             uint8 biggestCtrdSize = 0u;
 870:Generated_Source\PSoC5/CapSense_CSD_CSHL.c ****             uint8 biggestCtrdStartPos = 0u;
 871:Generated_Source\PSoC5/CapSense_CSD_CSHL.c ****         #endif /* (CapSense_CSD_IS_DIPLEX_SLIDER) */
 872:Generated_Source\PSoC5/CapSense_CSD_CSHL.c ****         uint8 maximum = 0xFFu;
 873:Generated_Source\PSoC5/CapSense_CSD_CSHL.c ****         uint16 temp = 0u;
 874:Generated_Source\PSoC5/CapSense_CSD_CSHL.c ****         uint16 *startOfSlider = &CapSense_CSD_sensorSignal[offset]; 
 839              		.loc 1 874 0
 840 0002 0A4D     		ldr	r5, .L79
 841 0004 05EB4005 		add	r5, r5, r0, lsl #1
 842              	.LVL111:
 873:Generated_Source\PSoC5/CapSense_CSD_CSHL.c ****         uint16 *startOfSlider = &CapSense_CSD_sensorSignal[offset]; 
 843              		.loc 1 873 0
 844 0008 0026     		movs	r6, #0
 872:Generated_Source\PSoC5/CapSense_CSD_CSHL.c ****         uint16 temp = 0u;
 845              		.loc 1 872 0
 846 000a FF20     		movs	r0, #255
 847              	.LVL112:
 875:Generated_Source\PSoC5/CapSense_CSD_CSHL.c **** 
 876:Generated_Source\PSoC5/CapSense_CSD_CSHL.c ****         #if (CapSense_CSD_IS_DIPLEX_SLIDER)        
 877:Generated_Source\PSoC5/CapSense_CSD_CSHL.c ****             if(diplex != 0u)
 878:Generated_Source\PSoC5/CapSense_CSD_CSHL.c ****             {
 879:Generated_Source\PSoC5/CapSense_CSD_CSHL.c ****                 /* Initialize */
 880:Generated_Source\PSoC5/CapSense_CSD_CSHL.c ****                 i = 0u;
 881:Generated_Source\PSoC5/CapSense_CSD_CSHL.c ****                 
 882:Generated_Source\PSoC5/CapSense_CSD_CSHL.c ****                 /* Make slider x2 as Diplexed */
 883:Generated_Source\PSoC5/CapSense_CSD_CSHL.c ****                 count <<= 1u;
 884:Generated_Source\PSoC5/CapSense_CSD_CSHL.c ****                 while(1u)
 885:Generated_Source\PSoC5/CapSense_CSD_CSHL.c ****                 { 
 886:Generated_Source\PSoC5/CapSense_CSD_CSHL.c ****                     if (startOfSlider[curPos] > 0u)    /* Looking for centroids */
 887:Generated_Source\PSoC5/CapSense_CSD_CSHL.c ****                     {
 888:Generated_Source\PSoC5/CapSense_CSD_CSHL.c ****                         if (curCtrdStartPos == 0xFFu)
 889:Generated_Source\PSoC5/CapSense_CSD_CSHL.c ****                         {
 890:Generated_Source\PSoC5/CapSense_CSD_CSHL.c ****                             /* Start of centroid */
 891:Generated_Source\PSoC5/CapSense_CSD_CSHL.c ****                             curCtrdStartPos = i;
 892:Generated_Source\PSoC5/CapSense_CSD_CSHL.c ****                             curCntrdSize++;
 893:Generated_Source\PSoC5/CapSense_CSD_CSHL.c ****                         }
 894:Generated_Source\PSoC5/CapSense_CSD_CSHL.c ****                         else
 895:Generated_Source\PSoC5/CapSense_CSD_CSHL.c ****                         {
 896:Generated_Source\PSoC5/CapSense_CSD_CSHL.c ****                             curCntrdSize++;
 897:Generated_Source\PSoC5/CapSense_CSD_CSHL.c ****                         }
 898:Generated_Source\PSoC5/CapSense_CSD_CSHL.c ****                     }
 899:Generated_Source\PSoC5/CapSense_CSD_CSHL.c ****                     else   /* Select the bigest and indicate zero start */
 900:Generated_Source\PSoC5/CapSense_CSD_CSHL.c ****                     {          
 901:Generated_Source\PSoC5/CapSense_CSD_CSHL.c ****                         if(curCntrdSize > 0u)
 902:Generated_Source\PSoC5/CapSense_CSD_CSHL.c ****                         {
 903:Generated_Source\PSoC5/CapSense_CSD_CSHL.c ****                             /* We are in the end of current */
 904:Generated_Source\PSoC5/CapSense_CSD_CSHL.c ****                             if(curCntrdSize > biggestCtrdSize)
 905:Generated_Source\PSoC5/CapSense_CSD_CSHL.c ****                             {
 906:Generated_Source\PSoC5/CapSense_CSD_CSHL.c ****                                 biggestCtrdSize = curCntrdSize;
 907:Generated_Source\PSoC5/CapSense_CSD_CSHL.c ****                                 biggestCtrdStartPos = curCtrdStartPos;
 908:Generated_Source\PSoC5/CapSense_CSD_CSHL.c ****                             }
 909:Generated_Source\PSoC5/CapSense_CSD_CSHL.c ****                             
ARM GAS  C:\Users\aryan\AppData\Local\Temp\ccEOeQjh.s 			page 32


 910:Generated_Source\PSoC5/CapSense_CSD_CSHL.c ****                             curCntrdSize = 0u;
 911:Generated_Source\PSoC5/CapSense_CSD_CSHL.c ****                             curCtrdStartPos = 0xFFu;
 912:Generated_Source\PSoC5/CapSense_CSD_CSHL.c ****                         }
 913:Generated_Source\PSoC5/CapSense_CSD_CSHL.c ****                     }
 914:Generated_Source\PSoC5/CapSense_CSD_CSHL.c ****                     
 915:Generated_Source\PSoC5/CapSense_CSD_CSHL.c ****                     i++; 
 916:Generated_Source\PSoC5/CapSense_CSD_CSHL.c ****                     curPos = diplex[i];
 917:Generated_Source\PSoC5/CapSense_CSD_CSHL.c ****                     if(i == count)
 918:Generated_Source\PSoC5/CapSense_CSD_CSHL.c ****                     {
 919:Generated_Source\PSoC5/CapSense_CSD_CSHL.c ****                         break;
 920:Generated_Source\PSoC5/CapSense_CSD_CSHL.c ****                     }            
 921:Generated_Source\PSoC5/CapSense_CSD_CSHL.c ****                 }
 922:Generated_Source\PSoC5/CapSense_CSD_CSHL.c ****                     
 923:Generated_Source\PSoC5/CapSense_CSD_CSHL.c ****                     /* Find the biggest centroid if two are the same size, last one wins
 924:Generated_Source\PSoC5/CapSense_CSD_CSHL.c ****                        We are in the end of current */
 925:Generated_Source\PSoC5/CapSense_CSD_CSHL.c ****                 if (curCntrdSize >= biggestCtrdSize) 
 926:Generated_Source\PSoC5/CapSense_CSD_CSHL.c ****                 {
 927:Generated_Source\PSoC5/CapSense_CSD_CSHL.c ****                     biggestCtrdSize = curCntrdSize;
 928:Generated_Source\PSoC5/CapSense_CSD_CSHL.c ****                     biggestCtrdStartPos = curCtrdStartPos;
 929:Generated_Source\PSoC5/CapSense_CSD_CSHL.c ****                 }
 930:Generated_Source\PSoC5/CapSense_CSD_CSHL.c ****             }
 931:Generated_Source\PSoC5/CapSense_CSD_CSHL.c ****             else
 932:Generated_Source\PSoC5/CapSense_CSD_CSHL.c ****             {
 933:Generated_Source\PSoC5/CapSense_CSD_CSHL.c ****                 /* Without diplexing */ 
 934:Generated_Source\PSoC5/CapSense_CSD_CSHL.c ****                 biggestCtrdSize = count;
 935:Generated_Source\PSoC5/CapSense_CSD_CSHL.c ****             }
 936:Generated_Source\PSoC5/CapSense_CSD_CSHL.c ****                         
 937:Generated_Source\PSoC5/CapSense_CSD_CSHL.c **** 
 938:Generated_Source\PSoC5/CapSense_CSD_CSHL.c ****             /* Check centroid size */
 939:Generated_Source\PSoC5/CapSense_CSD_CSHL.c ****             #if (CapSense_CSD_IS_NON_DIPLEX_SLIDER)
 940:Generated_Source\PSoC5/CapSense_CSD_CSHL.c ****                 if((biggestCtrdSize >= 2u) || ((biggestCtrdSize == 1u) && (diplex == 0u)))
 941:Generated_Source\PSoC5/CapSense_CSD_CSHL.c ****             #else                    
 942:Generated_Source\PSoC5/CapSense_CSD_CSHL.c ****                 if(biggestCtrdSize >= 2u)
 943:Generated_Source\PSoC5/CapSense_CSD_CSHL.c ****             #endif /* (CapSense_CSD_IS_NON_DIPLEX_SLIDER) */
 944:Generated_Source\PSoC5/CapSense_CSD_CSHL.c ****                 {
 945:Generated_Source\PSoC5/CapSense_CSD_CSHL.c ****                     for (i = biggestCtrdStartPos; i < (biggestCtrdStartPos + biggestCtrdSize); i++)
 946:Generated_Source\PSoC5/CapSense_CSD_CSHL.c ****                     {
 947:Generated_Source\PSoC5/CapSense_CSD_CSHL.c ****                         #if (CapSense_CSD_IS_DIPLEX_SLIDER && CapSense_CSD_IS_NON_DIPLEX_SLIDER)
 948:Generated_Source\PSoC5/CapSense_CSD_CSHL.c ****                             if (diplex == 0u)
 949:Generated_Source\PSoC5/CapSense_CSD_CSHL.c ****                             {
 950:Generated_Source\PSoC5/CapSense_CSD_CSHL.c ****                                 curPos = i;
 951:Generated_Source\PSoC5/CapSense_CSD_CSHL.c ****                             }
 952:Generated_Source\PSoC5/CapSense_CSD_CSHL.c ****                             else
 953:Generated_Source\PSoC5/CapSense_CSD_CSHL.c ****                             {
 954:Generated_Source\PSoC5/CapSense_CSD_CSHL.c ****                                 curPos = diplex[i];
 955:Generated_Source\PSoC5/CapSense_CSD_CSHL.c ****                             }                    
 956:Generated_Source\PSoC5/CapSense_CSD_CSHL.c ****                         #elif (CapSense_CSD_IS_DIPLEX_SLIDER)                    
 957:Generated_Source\PSoC5/CapSense_CSD_CSHL.c ****                             curPos = diplex[i];                    
 958:Generated_Source\PSoC5/CapSense_CSD_CSHL.c ****                         #endif /* (CapSense_CSD_IS_DIPLEX_SLIDER && CapSense_CSD_IS_NON_DIPLEX_SLID
 959:Generated_Source\PSoC5/CapSense_CSD_CSHL.c ****                         /* Looking for the grater element within centroid */
 960:Generated_Source\PSoC5/CapSense_CSD_CSHL.c ****                         if(startOfSlider[curPos] > fingerThreshold)
 961:Generated_Source\PSoC5/CapSense_CSD_CSHL.c ****                         {
 962:Generated_Source\PSoC5/CapSense_CSD_CSHL.c ****                             if(startOfSlider[curPos] > temp)
 963:Generated_Source\PSoC5/CapSense_CSD_CSHL.c ****                             {
 964:Generated_Source\PSoC5/CapSense_CSD_CSHL.c ****                                 maximum = i;
 965:Generated_Source\PSoC5/CapSense_CSD_CSHL.c ****                                 temp = startOfSlider[curPos];
 966:Generated_Source\PSoC5/CapSense_CSD_CSHL.c ****                             }
ARM GAS  C:\Users\aryan\AppData\Local\Temp\ccEOeQjh.s 			page 33


 967:Generated_Source\PSoC5/CapSense_CSD_CSHL.c ****                         }
 968:Generated_Source\PSoC5/CapSense_CSD_CSHL.c ****                     }
 969:Generated_Source\PSoC5/CapSense_CSD_CSHL.c ****                 } 
 970:Generated_Source\PSoC5/CapSense_CSD_CSHL.c ****         #else
 971:Generated_Source\PSoC5/CapSense_CSD_CSHL.c ****             for (i = 0u; i < count; i++)
 848              		.loc 1 971 0
 849 000c 3346     		mov	r3, r6
 850 000e 09E0     		b	.L74
 851              	.LVL113:
 852              	.L76:
 972:Generated_Source\PSoC5/CapSense_CSD_CSHL.c ****             {                      
 973:Generated_Source\PSoC5/CapSense_CSD_CSHL.c ****                 /* Looking for the grater element within centroid */
 974:Generated_Source\PSoC5/CapSense_CSD_CSHL.c ****                 if(startOfSlider[i] > fingerThreshold)
 853              		.loc 1 974 0
 854 0010 35F81340 		ldrh	r4, [r5, r3, lsl #1]
 855 0014 9442     		cmp	r4, r2
 856 0016 03D9     		bls	.L75
 975:Generated_Source\PSoC5/CapSense_CSD_CSHL.c ****                 {
 976:Generated_Source\PSoC5/CapSense_CSD_CSHL.c ****                     if(startOfSlider[i] > temp)
 857              		.loc 1 976 0
 858 0018 A642     		cmp	r6, r4
 859 001a 01D2     		bcs	.L75
 977:Generated_Source\PSoC5/CapSense_CSD_CSHL.c ****                     {
 978:Generated_Source\PSoC5/CapSense_CSD_CSHL.c ****                         maximum = i;
 979:Generated_Source\PSoC5/CapSense_CSD_CSHL.c ****                         temp = startOfSlider[i];
 860              		.loc 1 979 0
 861 001c 2646     		mov	r6, r4
 862              	.LVL114:
 978:Generated_Source\PSoC5/CapSense_CSD_CSHL.c ****                         temp = startOfSlider[i];
 863              		.loc 1 978 0
 864 001e 1846     		mov	r0, r3
 865              	.LVL115:
 866              	.L75:
 971:Generated_Source\PSoC5/CapSense_CSD_CSHL.c ****             {                      
 867              		.loc 1 971 0 discriminator 2
 868 0020 0133     		adds	r3, r3, #1
 869              	.LVL116:
 870 0022 DBB2     		uxtb	r3, r3
 871              	.LVL117:
 872              	.L74:
 971:Generated_Source\PSoC5/CapSense_CSD_CSHL.c ****             {                      
 873              		.loc 1 971 0 is_stmt 0 discriminator 1
 874 0024 8B42     		cmp	r3, r1
 875 0026 F3D3     		bcc	.L76
 980:Generated_Source\PSoC5/CapSense_CSD_CSHL.c ****                     }
 981:Generated_Source\PSoC5/CapSense_CSD_CSHL.c ****                 }
 982:Generated_Source\PSoC5/CapSense_CSD_CSHL.c ****             }    
 983:Generated_Source\PSoC5/CapSense_CSD_CSHL.c ****         #endif /* (CapSense_CSD_IS_DIPLEX_SLIDER) */
 984:Generated_Source\PSoC5/CapSense_CSD_CSHL.c ****         return (maximum);
 985:Generated_Source\PSoC5/CapSense_CSD_CSHL.c ****     }
 876              		.loc 1 985 0 is_stmt 1
 877 0028 70BC     		pop	{r4, r5, r6}
 878              		.cfi_restore 6
 879              		.cfi_restore 5
 880              		.cfi_restore 4
 881              		.cfi_def_cfa_offset 0
 882              	.LVL118:
ARM GAS  C:\Users\aryan\AppData\Local\Temp\ccEOeQjh.s 			page 34


 883 002a 7047     		bx	lr
 884              	.L80:
 885              		.align	2
 886              	.L79:
 887 002c 00000000 		.word	CapSense_CSD_sensorSignal
 888              		.cfi_endproc
 889              	.LFE11:
 890              		.size	CapSense_CSD_FindMaximum, .-CapSense_CSD_FindMaximum
 891              		.section	.text.CapSense_CSD_CalcCentroid,"ax",%progbits
 892              		.align	2
 893              		.global	CapSense_CSD_CalcCentroid
 894              		.thumb
 895              		.thumb_func
 896              		.type	CapSense_CSD_CalcCentroid, %function
 897              	CapSense_CSD_CalcCentroid:
 898              	.LFB12:
 986:Generated_Source\PSoC5/CapSense_CSD_CSHL.c ****     
 987:Generated_Source\PSoC5/CapSense_CSD_CSHL.c ****     
 988:Generated_Source\PSoC5/CapSense_CSD_CSHL.c ****     /*******************************************************************************
 989:Generated_Source\PSoC5/CapSense_CSD_CSHL.c ****     * Function Name: CapSense_CSD_CalcCentroid
 990:Generated_Source\PSoC5/CapSense_CSD_CSHL.c ****     ********************************************************************************
 991:Generated_Source\PSoC5/CapSense_CSD_CSHL.c ****     *
 992:Generated_Source\PSoC5/CapSense_CSD_CSHL.c ****     * Summary:
 993:Generated_Source\PSoC5/CapSense_CSD_CSHL.c ****     *  Returns position value calculated accoring index of maximum element and API
 994:Generated_Source\PSoC5/CapSense_CSD_CSHL.c ****     *  resolution.
 995:Generated_Source\PSoC5/CapSense_CSD_CSHL.c ****     *
 996:Generated_Source\PSoC5/CapSense_CSD_CSHL.c ****     * Parameters:
 997:Generated_Source\PSoC5/CapSense_CSD_CSHL.c ****     *  type:  widget type.
 998:Generated_Source\PSoC5/CapSense_CSD_CSHL.c ****     *  diplex:  pointer to diplex table.
 999:Generated_Source\PSoC5/CapSense_CSD_CSHL.c ****     *  maximum:  Index of maximum element within centroid.
1000:Generated_Source\PSoC5/CapSense_CSD_CSHL.c ****     *  offset:   Start index of cetroid in CapSense_CSD_SensorSignal[] array.
1001:Generated_Source\PSoC5/CapSense_CSD_CSHL.c ****     *  count:    Number of elements within centroid.
1002:Generated_Source\PSoC5/CapSense_CSD_CSHL.c ****     *  resolution:  multiplicator calculated according to centroid type and
1003:Generated_Source\PSoC5/CapSense_CSD_CSHL.c ****     *  API resolution.
1004:Generated_Source\PSoC5/CapSense_CSD_CSHL.c ****     *  noiseThreshold:  Noise threshould.
1005:Generated_Source\PSoC5/CapSense_CSD_CSHL.c ****     * 
1006:Generated_Source\PSoC5/CapSense_CSD_CSHL.c ****     * Return:
1007:Generated_Source\PSoC5/CapSense_CSD_CSHL.c ****     *  Returns position value of the slider.
1008:Generated_Source\PSoC5/CapSense_CSD_CSHL.c ****     * 
1009:Generated_Source\PSoC5/CapSense_CSD_CSHL.c ****     *
1010:Generated_Source\PSoC5/CapSense_CSD_CSHL.c ****     * Reentrant:
1011:Generated_Source\PSoC5/CapSense_CSD_CSHL.c ****     *  No.
1012:Generated_Source\PSoC5/CapSense_CSD_CSHL.c ****     *
1013:Generated_Source\PSoC5/CapSense_CSD_CSHL.c ****     *******************************************************************************/
1014:Generated_Source\PSoC5/CapSense_CSD_CSHL.c ****     uint8 CapSense_CSD_CalcCentroid(uint8 maximum, uint8 offset, 
1015:Generated_Source\PSoC5/CapSense_CSD_CSHL.c ****                                         uint8 count, uint16 resolution, uint16 noiseThreshold)
1016:Generated_Source\PSoC5/CapSense_CSD_CSHL.c **** 	                                    
1017:Generated_Source\PSoC5/CapSense_CSD_CSHL.c ****     {
 899              		.loc 1 1017 0
 900              		.cfi_startproc
 901              		@ args = 4, pretend = 0, frame = 0
 902              		@ frame_needed = 0, uses_anonymous_args = 0
 903              	.LVL119:
 904 0000 F0B5     		push	{r4, r5, r6, r7, lr}
 905              		.cfi_def_cfa_offset 20
 906              		.cfi_offset 4, -20
 907              		.cfi_offset 5, -16
ARM GAS  C:\Users\aryan\AppData\Local\Temp\ccEOeQjh.s 			page 35


 908              		.cfi_offset 6, -12
 909              		.cfi_offset 7, -8
 910              		.cfi_offset 14, -4
 911 0002 BDF81450 		ldrh	r5, [sp, #20]
 912              	.LVL120:
1018:Generated_Source\PSoC5/CapSense_CSD_CSHL.c ****         #if ((CapSense_CSD_TOTAL_LINEAR_SLIDERS_COUNT > 0u) || (CapSense_CSD_TOTAL_TOUCH_PADS_COUNT
1019:Generated_Source\PSoC5/CapSense_CSD_CSHL.c ****             uint8 posPrev = 0u;
1020:Generated_Source\PSoC5/CapSense_CSD_CSHL.c ****             uint8 posNext = 0u;
1021:Generated_Source\PSoC5/CapSense_CSD_CSHL.c ****         #endif /* ((CapSense_CSD_TOTAL_LINEAR_SLIDERS_COUNT>0u) || (CapSense_CSD_TOTAL_TOUCH_PADS_C
1022:Generated_Source\PSoC5/CapSense_CSD_CSHL.c ****                
1023:Generated_Source\PSoC5/CapSense_CSD_CSHL.c ****         #if (CapSense_CSD_IS_DIPLEX_SLIDER)                
1024:Generated_Source\PSoC5/CapSense_CSD_CSHL.c ****             uint8 pos;
1025:Generated_Source\PSoC5/CapSense_CSD_CSHL.c ****         #endif /* (CapSense_CSD_IS_DIPLEX_SLIDER) */
1026:Generated_Source\PSoC5/CapSense_CSD_CSHL.c ****         
1027:Generated_Source\PSoC5/CapSense_CSD_CSHL.c ****         /* Helps while centroid calulation */
1028:Generated_Source\PSoC5/CapSense_CSD_CSHL.c ****         static uint16 CapSense_CSD_centroid[3u];
1029:Generated_Source\PSoC5/CapSense_CSD_CSHL.c **** 
1030:Generated_Source\PSoC5/CapSense_CSD_CSHL.c ****         uint8 position;
1031:Generated_Source\PSoC5/CapSense_CSD_CSHL.c ****         uint32 numerator;
1032:Generated_Source\PSoC5/CapSense_CSD_CSHL.c ****         int32 denominator;
1033:Generated_Source\PSoC5/CapSense_CSD_CSHL.c ****         uint16 *startOfSlider = &CapSense_CSD_sensorSignal[offset];
 913              		.loc 1 1033 0
 914 0006 2A4C     		ldr	r4, .L92
 915 0008 04EB4101 		add	r1, r4, r1, lsl #1
 916              	.LVL121:
1034:Generated_Source\PSoC5/CapSense_CSD_CSHL.c ****                     
1035:Generated_Source\PSoC5/CapSense_CSD_CSHL.c ****         #if (CapSense_CSD_ADD_SLIDER_TYPE)
1036:Generated_Source\PSoC5/CapSense_CSD_CSHL.c ****             if(type == CapSense_CSD_TYPE_RADIAL_SLIDER)
1037:Generated_Source\PSoC5/CapSense_CSD_CSHL.c ****             {
1038:Generated_Source\PSoC5/CapSense_CSD_CSHL.c ****         #endif /* (CapSense_CSD_ADD_SLIDER_TYPE) */
1039:Generated_Source\PSoC5/CapSense_CSD_CSHL.c **** 
1040:Generated_Source\PSoC5/CapSense_CSD_CSHL.c ****             #if (CapSense_CSD_TOTAL_RADIAL_SLIDERS_COUNT > 0u)                
1041:Generated_Source\PSoC5/CapSense_CSD_CSHL.c ****                 /* Copy Signal for found centriod */
1042:Generated_Source\PSoC5/CapSense_CSD_CSHL.c ****                 CapSense_CSD_centroid[CapSense_CSD_POS] = startOfSlider[maximum];
1043:Generated_Source\PSoC5/CapSense_CSD_CSHL.c ****                  
1044:Generated_Source\PSoC5/CapSense_CSD_CSHL.c ****                 /* Check borders for ROTARY Slider */
1045:Generated_Source\PSoC5/CapSense_CSD_CSHL.c ****                 if (maximum == 0u)                   /* Start of centroid */
1046:Generated_Source\PSoC5/CapSense_CSD_CSHL.c ****                 { 
1047:Generated_Source\PSoC5/CapSense_CSD_CSHL.c ****                     CapSense_CSD_centroid[CapSense_CSD_POS_PREV] = startOfSlider[count - 1u];
1048:Generated_Source\PSoC5/CapSense_CSD_CSHL.c ****                     CapSense_CSD_centroid[CapSense_CSD_POS_NEXT] = startOfSlider[1u];
1049:Generated_Source\PSoC5/CapSense_CSD_CSHL.c ****                 }
1050:Generated_Source\PSoC5/CapSense_CSD_CSHL.c ****                 else if (maximum == (count - 1u))    /* End of centroid */
1051:Generated_Source\PSoC5/CapSense_CSD_CSHL.c ****                 {
1052:Generated_Source\PSoC5/CapSense_CSD_CSHL.c ****                     CapSense_CSD_centroid[CapSense_CSD_POS_PREV] = startOfSlider[maximum - 1u];
1053:Generated_Source\PSoC5/CapSense_CSD_CSHL.c ****                     CapSense_CSD_centroid[CapSense_CSD_POS_NEXT] = startOfSlider[0u];
1054:Generated_Source\PSoC5/CapSense_CSD_CSHL.c ****                 }
1055:Generated_Source\PSoC5/CapSense_CSD_CSHL.c ****                 else                                /* Not first Not last */
1056:Generated_Source\PSoC5/CapSense_CSD_CSHL.c ****                 {
1057:Generated_Source\PSoC5/CapSense_CSD_CSHL.c ****                     CapSense_CSD_centroid[CapSense_CSD_POS_PREV] = startOfSlider[maximum - 1u];
1058:Generated_Source\PSoC5/CapSense_CSD_CSHL.c ****                     CapSense_CSD_centroid[CapSense_CSD_POS_NEXT] = startOfSlider[maximum + 1u];
1059:Generated_Source\PSoC5/CapSense_CSD_CSHL.c ****                 }
1060:Generated_Source\PSoC5/CapSense_CSD_CSHL.c ****             #endif /* (CapSense_CSD_TOTAL_RADIAL_SLIDERS_COUNT > 0u) */
1061:Generated_Source\PSoC5/CapSense_CSD_CSHL.c **** 
1062:Generated_Source\PSoC5/CapSense_CSD_CSHL.c ****         #if (CapSense_CSD_ADD_SLIDER_TYPE)
1063:Generated_Source\PSoC5/CapSense_CSD_CSHL.c ****             }
1064:Generated_Source\PSoC5/CapSense_CSD_CSHL.c ****             else
1065:Generated_Source\PSoC5/CapSense_CSD_CSHL.c ****             {
ARM GAS  C:\Users\aryan\AppData\Local\Temp\ccEOeQjh.s 			page 36


1066:Generated_Source\PSoC5/CapSense_CSD_CSHL.c ****         #endif /* (CapSense_CSD_ADD_SLIDER_TYPE) */
1067:Generated_Source\PSoC5/CapSense_CSD_CSHL.c **** 
1068:Generated_Source\PSoC5/CapSense_CSD_CSHL.c ****             #if ((CapSense_CSD_TOTAL_LINEAR_SLIDERS_COUNT > 0u) || (CapSense_CSD_TOTAL_TOUCH_PADS_C
1069:Generated_Source\PSoC5/CapSense_CSD_CSHL.c ****                 #if (CapSense_CSD_IS_DIPLEX_SLIDER && CapSense_CSD_IS_NON_DIPLEX_SLIDER)           
1070:Generated_Source\PSoC5/CapSense_CSD_CSHL.c ****                     /* Calculate next and previous near to maximum */
1071:Generated_Source\PSoC5/CapSense_CSD_CSHL.c ****                     if(diplex == 0u)
1072:Generated_Source\PSoC5/CapSense_CSD_CSHL.c ****                     {
1073:Generated_Source\PSoC5/CapSense_CSD_CSHL.c ****                         pos     = maximum;
1074:Generated_Source\PSoC5/CapSense_CSD_CSHL.c ****                         posPrev = maximum - 1u;
1075:Generated_Source\PSoC5/CapSense_CSD_CSHL.c ****                         posNext = maximum + 1u; 
1076:Generated_Source\PSoC5/CapSense_CSD_CSHL.c ****                     }
1077:Generated_Source\PSoC5/CapSense_CSD_CSHL.c ****                     else
1078:Generated_Source\PSoC5/CapSense_CSD_CSHL.c ****                     {
1079:Generated_Source\PSoC5/CapSense_CSD_CSHL.c ****                         pos     = diplex[maximum];
1080:Generated_Source\PSoC5/CapSense_CSD_CSHL.c ****                         posPrev = diplex[maximum - 1u];
1081:Generated_Source\PSoC5/CapSense_CSD_CSHL.c ****                         posNext = diplex[maximum + 1u];
1082:Generated_Source\PSoC5/CapSense_CSD_CSHL.c ****                         count <<= 1u;
1083:Generated_Source\PSoC5/CapSense_CSD_CSHL.c ****                     }                    
1084:Generated_Source\PSoC5/CapSense_CSD_CSHL.c ****                 #elif (CapSense_CSD_IS_DIPLEX_SLIDER)
1085:Generated_Source\PSoC5/CapSense_CSD_CSHL.c ****                     /* Calculate next and previous near to maximum */
1086:Generated_Source\PSoC5/CapSense_CSD_CSHL.c ****                     pos     = diplex[maximum];
1087:Generated_Source\PSoC5/CapSense_CSD_CSHL.c ****                     posPrev = diplex[maximum - 1u];
1088:Generated_Source\PSoC5/CapSense_CSD_CSHL.c ****                     posNext = diplex[maximum + 1u];
1089:Generated_Source\PSoC5/CapSense_CSD_CSHL.c ****                     count <<= 1u;                    
1090:Generated_Source\PSoC5/CapSense_CSD_CSHL.c ****                 #else                    
1091:Generated_Source\PSoC5/CapSense_CSD_CSHL.c ****                     /* Calculate next and previous near to maximum */
1092:Generated_Source\PSoC5/CapSense_CSD_CSHL.c ****                     if (maximum >= 1u)
 917              		.loc 1 1092 0
 918 000c 0446     		mov	r4, r0
 919 000e 10B1     		cbz	r0, .L90
1093:Generated_Source\PSoC5/CapSense_CSD_CSHL.c ****                     {
1094:Generated_Source\PSoC5/CapSense_CSD_CSHL.c ****                         posPrev = maximum - 1u;
 920              		.loc 1 1094 0
 921 0010 461E     		subs	r6, r0, #1
 922 0012 F6B2     		uxtb	r6, r6
 923              	.LVL122:
 924 0014 00E0     		b	.L82
 925              	.LVL123:
 926              	.L90:
1019:Generated_Source\PSoC5/CapSense_CSD_CSHL.c ****             uint8 posNext = 0u;
 927              		.loc 1 1019 0
 928 0016 0026     		movs	r6, #0
 929              	.LVL124:
 930              	.L82:
1095:Generated_Source\PSoC5/CapSense_CSD_CSHL.c ****                     }
1096:Generated_Source\PSoC5/CapSense_CSD_CSHL.c ****                     posNext = maximum + 1u; 
 931              		.loc 1 1096 0
 932 0018 601C     		adds	r0, r4, #1
 933              	.LVL125:
 934 001a C0B2     		uxtb	r0, r0
 935              	.LVL126:
1097:Generated_Source\PSoC5/CapSense_CSD_CSHL.c ****                 #endif /* (CapSense_CSD_IS_DIPLEX_SLIDER && CapSense_CSD_IS_NON_DIPLEX_SLIDER) */
1098:Generated_Source\PSoC5/CapSense_CSD_CSHL.c ****                         
1099:Generated_Source\PSoC5/CapSense_CSD_CSHL.c ****                 /* Copy Signal for found centriod */
1100:Generated_Source\PSoC5/CapSense_CSD_CSHL.c ****                 #if (CapSense_CSD_IS_DIPLEX_SLIDER)
1101:Generated_Source\PSoC5/CapSense_CSD_CSHL.c ****                     CapSense_CSD_centroid[CapSense_CSD_POS] = startOfSlider[pos];
1102:Generated_Source\PSoC5/CapSense_CSD_CSHL.c ****                 #else
ARM GAS  C:\Users\aryan\AppData\Local\Temp\ccEOeQjh.s 			page 37


1103:Generated_Source\PSoC5/CapSense_CSD_CSHL.c ****                     CapSense_CSD_centroid[CapSense_CSD_POS] = startOfSlider[maximum];
 936              		.loc 1 1103 0
 937 001c 31F814E0 		ldrh	lr, [r1, r4, lsl #1]
 938 0020 244F     		ldr	r7, .L92+4
 939 0022 A7F806E0 		strh	lr, [r7, #6]	@ movhi
1104:Generated_Source\PSoC5/CapSense_CSD_CSHL.c ****                 #endif /* (CapSense_CSD_IS_DIPLEX_SLIDER) */
1105:Generated_Source\PSoC5/CapSense_CSD_CSHL.c ****                     
1106:Generated_Source\PSoC5/CapSense_CSD_CSHL.c ****                 /* Check borders for LINEAR Slider */
1107:Generated_Source\PSoC5/CapSense_CSD_CSHL.c ****                 if (maximum == 0u)                   /* Start of centroid */
 940              		.loc 1 1107 0
 941 0026 2CB9     		cbnz	r4, .L83
1108:Generated_Source\PSoC5/CapSense_CSD_CSHL.c ****                 { 
1109:Generated_Source\PSoC5/CapSense_CSD_CSHL.c ****                     CapSense_CSD_centroid[CapSense_CSD_POS_PREV] = 0u;
 942              		.loc 1 1109 0
 943 0028 0026     		movs	r6, #0
 944              	.LVL127:
 945 002a BE80     		strh	r6, [r7, #4]	@ movhi
1110:Generated_Source\PSoC5/CapSense_CSD_CSHL.c ****                     CapSense_CSD_centroid[CapSense_CSD_POS_NEXT] = startOfSlider[posNext];
 946              		.loc 1 1110 0
 947 002c 31F81010 		ldrh	r1, [r1, r0, lsl #1]
 948              	.LVL128:
 949 0030 3981     		strh	r1, [r7, #8]	@ movhi
 950 0032 10E0     		b	.L84
 951              	.LVL129:
 952              	.L83:
1111:Generated_Source\PSoC5/CapSense_CSD_CSHL.c ****                 }
1112:Generated_Source\PSoC5/CapSense_CSD_CSHL.c ****                 else if (maximum == ((count) - 1u)) /* End of centroid */
 953              		.loc 1 1112 0
 954 0034 013A     		subs	r2, r2, #1
 955              	.LVL130:
 956 0036 9442     		cmp	r4, r2
 957 0038 06D1     		bne	.L85
1113:Generated_Source\PSoC5/CapSense_CSD_CSHL.c ****                 {
1114:Generated_Source\PSoC5/CapSense_CSD_CSHL.c ****                     CapSense_CSD_centroid[CapSense_CSD_POS_PREV] = startOfSlider[posPrev];
 958              		.loc 1 1114 0
 959 003a 31F81610 		ldrh	r1, [r1, r6, lsl #1]
 960              	.LVL131:
 961 003e 1D4A     		ldr	r2, .L92+4
 962 0040 9180     		strh	r1, [r2, #4]	@ movhi
1115:Generated_Source\PSoC5/CapSense_CSD_CSHL.c ****                     CapSense_CSD_centroid[CapSense_CSD_POS_NEXT] = 0u;
 963              		.loc 1 1115 0
 964 0042 0021     		movs	r1, #0
 965 0044 1181     		strh	r1, [r2, #8]	@ movhi
 966 0046 06E0     		b	.L84
 967              	.LVL132:
 968              	.L85:
1116:Generated_Source\PSoC5/CapSense_CSD_CSHL.c ****                 }
1117:Generated_Source\PSoC5/CapSense_CSD_CSHL.c ****                 else                                /* Not first Not last */
1118:Generated_Source\PSoC5/CapSense_CSD_CSHL.c ****                 {
1119:Generated_Source\PSoC5/CapSense_CSD_CSHL.c ****                     CapSense_CSD_centroid[CapSense_CSD_POS_PREV] = startOfSlider[posPrev];
 969              		.loc 1 1119 0
 970 0048 31F81660 		ldrh	r6, [r1, r6, lsl #1]
 971              	.LVL133:
 972 004c 194A     		ldr	r2, .L92+4
 973 004e 9680     		strh	r6, [r2, #4]	@ movhi
1120:Generated_Source\PSoC5/CapSense_CSD_CSHL.c ****                     CapSense_CSD_centroid[CapSense_CSD_POS_NEXT] = startOfSlider[posNext];
 974              		.loc 1 1120 0
ARM GAS  C:\Users\aryan\AppData\Local\Temp\ccEOeQjh.s 			page 38


 975 0050 31F81010 		ldrh	r1, [r1, r0, lsl #1]
 976              	.LVL134:
 977 0054 1181     		strh	r1, [r2, #8]	@ movhi
 978              	.L84:
1121:Generated_Source\PSoC5/CapSense_CSD_CSHL.c ****                 }
1122:Generated_Source\PSoC5/CapSense_CSD_CSHL.c ****             #endif /* ((CapSense_CSD_TOTAL_LINEAR_SLIDERS_COUNT>0u)||(CapSense_CSD_TOTAL_TOUCH_PADS
1123:Generated_Source\PSoC5/CapSense_CSD_CSHL.c **** 
1124:Generated_Source\PSoC5/CapSense_CSD_CSHL.c ****         #if (CapSense_CSD_ADD_SLIDER_TYPE)
1125:Generated_Source\PSoC5/CapSense_CSD_CSHL.c ****             }
1126:Generated_Source\PSoC5/CapSense_CSD_CSHL.c ****         #endif /* (CapSense_CSD_ADD_SLIDER_TYPE) */
1127:Generated_Source\PSoC5/CapSense_CSD_CSHL.c ****     
1128:Generated_Source\PSoC5/CapSense_CSD_CSHL.c ****         /* Subtract noiseThreshold */
1129:Generated_Source\PSoC5/CapSense_CSD_CSHL.c ****         if(CapSense_CSD_centroid[CapSense_CSD_POS_PREV] > noiseThreshold)
 979              		.loc 1 1129 0
 980 0056 174A     		ldr	r2, .L92+4
 981 0058 9288     		ldrh	r2, [r2, #4]
 982 005a AA42     		cmp	r2, r5
 983 005c 03D9     		bls	.L86
1130:Generated_Source\PSoC5/CapSense_CSD_CSHL.c ****         {
1131:Generated_Source\PSoC5/CapSense_CSD_CSHL.c ****             CapSense_CSD_centroid[CapSense_CSD_POS_PREV] -= noiseThreshold;
 984              		.loc 1 1131 0
 985 005e 521B     		subs	r2, r2, r5
 986 0060 1449     		ldr	r1, .L92+4
 987 0062 8A80     		strh	r2, [r1, #4]	@ movhi
 988 0064 02E0     		b	.L87
 989              	.L86:
1132:Generated_Source\PSoC5/CapSense_CSD_CSHL.c ****         }
1133:Generated_Source\PSoC5/CapSense_CSD_CSHL.c ****         else
1134:Generated_Source\PSoC5/CapSense_CSD_CSHL.c ****         {
1135:Generated_Source\PSoC5/CapSense_CSD_CSHL.c ****             CapSense_CSD_centroid[CapSense_CSD_POS_PREV] = 0u;
 990              		.loc 1 1135 0
 991 0066 0021     		movs	r1, #0
 992 0068 124A     		ldr	r2, .L92+4
 993 006a 9180     		strh	r1, [r2, #4]	@ movhi
 994              	.L87:
1136:Generated_Source\PSoC5/CapSense_CSD_CSHL.c ****         }
1137:Generated_Source\PSoC5/CapSense_CSD_CSHL.c ****         
1138:Generated_Source\PSoC5/CapSense_CSD_CSHL.c ****         /* Maximum always grater than fingerThreshold, so grate than noiseThreshold */
1139:Generated_Source\PSoC5/CapSense_CSD_CSHL.c ****         CapSense_CSD_centroid[CapSense_CSD_POS] -= noiseThreshold;
 995              		.loc 1 1139 0
 996 006c 114A     		ldr	r2, .L92+4
 997 006e D188     		ldrh	r1, [r2, #6]
 998 0070 491B     		subs	r1, r1, r5
 999 0072 89B2     		uxth	r1, r1
 1000 0074 D180     		strh	r1, [r2, #6]	@ movhi
1140:Generated_Source\PSoC5/CapSense_CSD_CSHL.c ****         
1141:Generated_Source\PSoC5/CapSense_CSD_CSHL.c ****         /* Subtract noiseThreshold */
1142:Generated_Source\PSoC5/CapSense_CSD_CSHL.c ****         if(CapSense_CSD_centroid[CapSense_CSD_POS_NEXT] > noiseThreshold)
 1001              		.loc 1 1142 0
 1002 0076 1289     		ldrh	r2, [r2, #8]
 1003 0078 9542     		cmp	r5, r2
 1004 007a 03D2     		bcs	.L88
1143:Generated_Source\PSoC5/CapSense_CSD_CSHL.c ****         {
1144:Generated_Source\PSoC5/CapSense_CSD_CSHL.c ****             CapSense_CSD_centroid[CapSense_CSD_POS_NEXT] -= noiseThreshold;
 1005              		.loc 1 1144 0
 1006 007c 551B     		subs	r5, r2, r5
 1007 007e 0D4A     		ldr	r2, .L92+4
ARM GAS  C:\Users\aryan\AppData\Local\Temp\ccEOeQjh.s 			page 39


 1008 0080 1581     		strh	r5, [r2, #8]	@ movhi
 1009 0082 02E0     		b	.L89
 1010              	.L88:
1145:Generated_Source\PSoC5/CapSense_CSD_CSHL.c ****         }
1146:Generated_Source\PSoC5/CapSense_CSD_CSHL.c ****         else
1147:Generated_Source\PSoC5/CapSense_CSD_CSHL.c ****         {
1148:Generated_Source\PSoC5/CapSense_CSD_CSHL.c ****             CapSense_CSD_centroid[CapSense_CSD_POS_NEXT] = 0u;
 1011              		.loc 1 1148 0
 1012 0084 0020     		movs	r0, #0
 1013              	.LVL135:
 1014 0086 0B4A     		ldr	r2, .L92+4
 1015 0088 1081     		strh	r0, [r2, #8]	@ movhi
 1016              	.L89:
1149:Generated_Source\PSoC5/CapSense_CSD_CSHL.c ****         }
1150:Generated_Source\PSoC5/CapSense_CSD_CSHL.c ****         
1151:Generated_Source\PSoC5/CapSense_CSD_CSHL.c ****         
1152:Generated_Source\PSoC5/CapSense_CSD_CSHL.c ****         /* Si+1 - Si-1 */
1153:Generated_Source\PSoC5/CapSense_CSD_CSHL.c ****         numerator = (uint32) CapSense_CSD_centroid[CapSense_CSD_POS_NEXT] -
 1017              		.loc 1 1153 0
 1018 008a 0A4A     		ldr	r2, .L92+4
 1019 008c 1089     		ldrh	r0, [r2, #8]
1154:Generated_Source\PSoC5/CapSense_CSD_CSHL.c ****                     (uint32) CapSense_CSD_centroid[CapSense_CSD_POS_PREV];
 1020              		.loc 1 1154 0
 1021 008e 9588     		ldrh	r5, [r2, #4]
1153:Generated_Source\PSoC5/CapSense_CSD_CSHL.c ****                     (uint32) CapSense_CSD_centroid[CapSense_CSD_POS_PREV];
 1022              		.loc 1 1153 0
 1023 0090 421B     		subs	r2, r0, r5
 1024              	.LVL136:
1155:Generated_Source\PSoC5/CapSense_CSD_CSHL.c **** 
1156:Generated_Source\PSoC5/CapSense_CSD_CSHL.c ****         /* Si+1 + Si + Si-1 */
1157:Generated_Source\PSoC5/CapSense_CSD_CSHL.c ****         denominator = (int32) CapSense_CSD_centroid[CapSense_CSD_POS_PREV] + 
 1025              		.loc 1 1157 0
 1026 0092 2944     		add	r1, r1, r5
 1027 0094 0844     		add	r0, r0, r1
 1028              	.LVL137:
1158:Generated_Source\PSoC5/CapSense_CSD_CSHL.c ****                       (int32) CapSense_CSD_centroid[CapSense_CSD_POS] + 
1159:Generated_Source\PSoC5/CapSense_CSD_CSHL.c ****                       (int32) CapSense_CSD_centroid[CapSense_CSD_POS_NEXT];
1160:Generated_Source\PSoC5/CapSense_CSD_CSHL.c ****         
1161:Generated_Source\PSoC5/CapSense_CSD_CSHL.c ****         /* (numerator/denominator) + maximum */
1162:Generated_Source\PSoC5/CapSense_CSD_CSHL.c ****         denominator = (((int32)(uint32)((uint32)numerator << 8u)/denominator) + (int32)(uint32)((ui
 1029              		.loc 1 1162 0
 1030 0096 1202     		lsls	r2, r2, #8
 1031              	.LVL138:
 1032 0098 92FBF0F0 		sdiv	r0, r2, r0
 1033              	.LVL139:
 1034 009c 00EB0420 		add	r0, r0, r4, lsl #8
 1035              	.LVL140:
1163:Generated_Source\PSoC5/CapSense_CSD_CSHL.c **** 
1164:Generated_Source\PSoC5/CapSense_CSD_CSHL.c ****         #if(CapSense_CSD_TOTAL_RADIAL_SLIDERS_COUNT > 0u)
1165:Generated_Source\PSoC5/CapSense_CSD_CSHL.c ****             /* Only required for RADIAL Slider */
1166:Generated_Source\PSoC5/CapSense_CSD_CSHL.c ****             if(denominator < 0)
1167:Generated_Source\PSoC5/CapSense_CSD_CSHL.c ****             {
1168:Generated_Source\PSoC5/CapSense_CSD_CSHL.c ****                 denominator += (int32)((uint16)((uint16) count << 8u));
1169:Generated_Source\PSoC5/CapSense_CSD_CSHL.c ****             }
1170:Generated_Source\PSoC5/CapSense_CSD_CSHL.c ****         #endif /* (CapSense_CSD_TOTAL_RADIAL_SLIDERS_COUNT > 0u) */
1171:Generated_Source\PSoC5/CapSense_CSD_CSHL.c **** 
1172:Generated_Source\PSoC5/CapSense_CSD_CSHL.c ****         denominator *= (int16)resolution;
ARM GAS  C:\Users\aryan\AppData\Local\Temp\ccEOeQjh.s 			page 40


 1036              		.loc 1 1172 0
 1037 00a0 1BB2     		sxth	r3, r3
 1038 00a2 00FB03F0 		mul	r0, r0, r3
 1039              	.LVL141:
1173:Generated_Source\PSoC5/CapSense_CSD_CSHL.c **** 
1174:Generated_Source\PSoC5/CapSense_CSD_CSHL.c ****         /* Round the relust and put it to uint8 */
1175:Generated_Source\PSoC5/CapSense_CSD_CSHL.c ****         position = ((uint8) HI16((uint32)denominator + CapSense_CSD_CENTROID_ROUND_VALUE));
 1040              		.loc 1 1175 0
 1041 00a6 00F5FE40 		add	r0, r0, #32512
 1042              	.LVL142:
1176:Generated_Source\PSoC5/CapSense_CSD_CSHL.c **** 
1177:Generated_Source\PSoC5/CapSense_CSD_CSHL.c ****         return (position);
1178:Generated_Source\PSoC5/CapSense_CSD_CSHL.c ****     }    
 1043              		.loc 1 1178 0
 1044 00aa C0F30740 		ubfx	r0, r0, #16, #8
 1045              	.LVL143:
 1046 00ae F0BD     		pop	{r4, r5, r6, r7, pc}
 1047              	.LVL144:
 1048              	.L93:
 1049              		.align	2
 1050              	.L92:
 1051 00b0 00000000 		.word	CapSense_CSD_sensorSignal
 1052 00b4 00000000 		.word	.LANCHOR1
 1053              		.cfi_endproc
 1054              	.LFE12:
 1055              		.size	CapSense_CSD_CalcCentroid, .-CapSense_CSD_CalcCentroid
 1056              		.section	.text.CapSense_CSD_GetCentroidPos,"ax",%progbits
 1057              		.align	2
 1058              		.global	CapSense_CSD_GetCentroidPos
 1059              		.thumb
 1060              		.thumb_func
 1061              		.type	CapSense_CSD_GetCentroidPos, %function
 1062              	CapSense_CSD_GetCentroidPos:
 1063              	.LFB13:
1179:Generated_Source\PSoC5/CapSense_CSD_CSHL.c **** #endif /* (CapSense_CSD_TOTAL_CENTROIDS_COUNT) */
1180:Generated_Source\PSoC5/CapSense_CSD_CSHL.c **** 
1181:Generated_Source\PSoC5/CapSense_CSD_CSHL.c **** 
1182:Generated_Source\PSoC5/CapSense_CSD_CSHL.c **** #if(CapSense_CSD_TOTAL_LINEAR_SLIDERS_COUNT > 0u)
1183:Generated_Source\PSoC5/CapSense_CSD_CSHL.c ****     /*******************************************************************************
1184:Generated_Source\PSoC5/CapSense_CSD_CSHL.c ****     * Function Name: CapSense_CSD_GetCentroidPos
1185:Generated_Source\PSoC5/CapSense_CSD_CSHL.c ****     ********************************************************************************
1186:Generated_Source\PSoC5/CapSense_CSD_CSHL.c ****     *
1187:Generated_Source\PSoC5/CapSense_CSD_CSHL.c ****     * Summary:
1188:Generated_Source\PSoC5/CapSense_CSD_CSHL.c ****     *  Checks the CapSense_CSD_Signal[ ] array for a centroid within
1189:Generated_Source\PSoC5/CapSense_CSD_CSHL.c ****     *  slider specified range. The centroid position is calculated to the resolution
1190:Generated_Source\PSoC5/CapSense_CSD_CSHL.c ****     *  specified in the CapSense customizer. The position filters are applied to the
1191:Generated_Source\PSoC5/CapSense_CSD_CSHL.c ****     *  result if enabled.
1192:Generated_Source\PSoC5/CapSense_CSD_CSHL.c ****     *
1193:Generated_Source\PSoC5/CapSense_CSD_CSHL.c ****     * Parameters:
1194:Generated_Source\PSoC5/CapSense_CSD_CSHL.c ****     *  widget:  Widget number.
1195:Generated_Source\PSoC5/CapSense_CSD_CSHL.c ****     *  For every linear slider widget there are defines in this format:
1196:Generated_Source\PSoC5/CapSense_CSD_CSHL.c ****     *  #define CapSense_CSD_LS__"widget_name"            5
1197:Generated_Source\PSoC5/CapSense_CSD_CSHL.c ****     * 
1198:Generated_Source\PSoC5/CapSense_CSD_CSHL.c ****     * Return:
1199:Generated_Source\PSoC5/CapSense_CSD_CSHL.c ****     *  Returns position value of the linear slider.
1200:Generated_Source\PSoC5/CapSense_CSD_CSHL.c ****     *
1201:Generated_Source\PSoC5/CapSense_CSD_CSHL.c ****     * Side Effects:
ARM GAS  C:\Users\aryan\AppData\Local\Temp\ccEOeQjh.s 			page 41


1202:Generated_Source\PSoC5/CapSense_CSD_CSHL.c ****     *  If any sensor within the slider widget is active, the function returns values
1203:Generated_Source\PSoC5/CapSense_CSD_CSHL.c ****     *  from zero to the API resolution value set in the CapSense customizer. If no
1204:Generated_Source\PSoC5/CapSense_CSD_CSHL.c ****     *  sensors are active, the function returns 0xFFFF. If an error occurs during
1205:Generated_Source\PSoC5/CapSense_CSD_CSHL.c ****     *  execution of the centroid/diplexing algorithm, the function returns 0xFFFF.
1206:Generated_Source\PSoC5/CapSense_CSD_CSHL.c ****     *  There are no checks of widget type argument provided to this function.
1207:Generated_Source\PSoC5/CapSense_CSD_CSHL.c ****     *  The unproper widget type provided will cause unexpected position calculations.
1208:Generated_Source\PSoC5/CapSense_CSD_CSHL.c ****     *
1209:Generated_Source\PSoC5/CapSense_CSD_CSHL.c ****     * Note:
1210:Generated_Source\PSoC5/CapSense_CSD_CSHL.c ****     *  If noise counts on the slider segments are greater than the noise
1211:Generated_Source\PSoC5/CapSense_CSD_CSHL.c ****     *  threshold, this subroutine may generate a false centroid result. The noise
1212:Generated_Source\PSoC5/CapSense_CSD_CSHL.c ****     *  threshold should be set carefully (high enough above the noise level) so
1213:Generated_Source\PSoC5/CapSense_CSD_CSHL.c ****     *  that noise will not generate a false centroid.
1214:Generated_Source\PSoC5/CapSense_CSD_CSHL.c ****     *
1215:Generated_Source\PSoC5/CapSense_CSD_CSHL.c ****     * Reentrant:
1216:Generated_Source\PSoC5/CapSense_CSD_CSHL.c ****     *  No.
1217:Generated_Source\PSoC5/CapSense_CSD_CSHL.c ****     *
1218:Generated_Source\PSoC5/CapSense_CSD_CSHL.c ****     *******************************************************************************/
1219:Generated_Source\PSoC5/CapSense_CSD_CSHL.c ****     uint16 CapSense_CSD_GetCentroidPos(uint8 widget) 
1220:Generated_Source\PSoC5/CapSense_CSD_CSHL.c ****     {
 1064              		.loc 1 1220 0
 1065              		.cfi_startproc
 1066              		@ args = 0, pretend = 0, frame = 0
 1067              		@ frame_needed = 0, uses_anonymous_args = 0
 1068              	.LVL145:
 1069 0000 70B5     		push	{r4, r5, r6, lr}
 1070              		.cfi_def_cfa_offset 16
 1071              		.cfi_offset 4, -16
 1072              		.cfi_offset 5, -12
 1073              		.cfi_offset 6, -8
 1074              		.cfi_offset 14, -4
 1075 0002 82B0     		sub	sp, sp, #8
 1076              		.cfi_def_cfa_offset 24
 1077 0004 0446     		mov	r4, r0
1221:Generated_Source\PSoC5/CapSense_CSD_CSHL.c ****         #if (CapSense_CSD_IS_DIPLEX_SLIDER)
1222:Generated_Source\PSoC5/CapSense_CSD_CSHL.c ****             const uint8 CYCODE *diplex;
1223:Generated_Source\PSoC5/CapSense_CSD_CSHL.c ****         #endif /* (CapSense_CSD_IS_DIPLEX_SLIDER) */
1224:Generated_Source\PSoC5/CapSense_CSD_CSHL.c ****                 
1225:Generated_Source\PSoC5/CapSense_CSD_CSHL.c ****         #if (0u != CapSense_CSD_LINEAR_SLIDERS_POS_FILTERS_MASK)
1226:Generated_Source\PSoC5/CapSense_CSD_CSHL.c ****             uint8 posIndex;
1227:Generated_Source\PSoC5/CapSense_CSD_CSHL.c ****             uint8 firstTimeIndex = CapSense_CSD_posFiltersData[widget];
1228:Generated_Source\PSoC5/CapSense_CSD_CSHL.c ****             uint8 posFiltersMask = CapSense_CSD_posFiltersMask[widget];  
1229:Generated_Source\PSoC5/CapSense_CSD_CSHL.c ****         #endif /* (0u != CapSense_CSD_LINEAR_SLIDERS_POS_FILTERS_MASK) */
1230:Generated_Source\PSoC5/CapSense_CSD_CSHL.c **** 
1231:Generated_Source\PSoC5/CapSense_CSD_CSHL.c ****         #if ((0u != (CapSense_CSD_MEDIAN_FILTER & CapSense_CSD_LINEAR_SLIDERS_POS_FILTERS_MASK)) ||
1232:Generated_Source\PSoC5/CapSense_CSD_CSHL.c ****              (0u != (CapSense_CSD_AVERAGING_FILTER & CapSense_CSD_LINEAR_SLIDERS_POS_FILTERS_MASK))
1233:Generated_Source\PSoC5/CapSense_CSD_CSHL.c ****             uint8 tempPos;
1234:Generated_Source\PSoC5/CapSense_CSD_CSHL.c ****         #endif /* ((0u != (CapSense_CSD_MEDIAN_FILTER & CapSense_CSD_LINEAR_SLIDERS_POS_FILTERS_MAS
1235:Generated_Source\PSoC5/CapSense_CSD_CSHL.c ****                *   (0u != (CapSense_CSD_AVERAGING_FILTER & CapSense_CSD_LINEAR_SLIDERS_POS_FILTERS_
1236:Generated_Source\PSoC5/CapSense_CSD_CSHL.c ****                */
1237:Generated_Source\PSoC5/CapSense_CSD_CSHL.c **** 
1238:Generated_Source\PSoC5/CapSense_CSD_CSHL.c ****         uint8 maximum;
1239:Generated_Source\PSoC5/CapSense_CSD_CSHL.c ****         uint16 position;
1240:Generated_Source\PSoC5/CapSense_CSD_CSHL.c ****         uint8 offset = CapSense_CSD_rawDataIndex[widget];
 1078              		.loc 1 1240 0
 1079 0006 0F4B     		ldr	r3, .L98
 1080 0008 1A18     		adds	r2, r3, r0
 1081 000a 157F     		ldrb	r5, [r2, #28]	@ zero_extendqisi2
ARM GAS  C:\Users\aryan\AppData\Local\Temp\ccEOeQjh.s 			page 42


 1082              	.LVL146:
1241:Generated_Source\PSoC5/CapSense_CSD_CSHL.c ****         uint8 count = CapSense_CSD_numberOfSensors[widget];
 1083              		.loc 1 1241 0
 1084 000c 92F82060 		ldrb	r6, [r2, #32]	@ zero_extendqisi2
 1085              	.LVL147:
1242:Generated_Source\PSoC5/CapSense_CSD_CSHL.c ****                         
1243:Generated_Source\PSoC5/CapSense_CSD_CSHL.c ****         #if (CapSense_CSD_IS_DIPLEX_SLIDER)
1244:Generated_Source\PSoC5/CapSense_CSD_CSHL.c ****             if(widget < CapSense_CSD_TOTAL_DIPLEXED_SLIDERS_COUNT)
1245:Generated_Source\PSoC5/CapSense_CSD_CSHL.c ****             {
1246:Generated_Source\PSoC5/CapSense_CSD_CSHL.c ****                 maximum = CapSense_CSD_diplexTable[widget];
1247:Generated_Source\PSoC5/CapSense_CSD_CSHL.c ****                 diplex = &CapSense_CSD_diplexTable[maximum];
1248:Generated_Source\PSoC5/CapSense_CSD_CSHL.c ****             }
1249:Generated_Source\PSoC5/CapSense_CSD_CSHL.c ****             else
1250:Generated_Source\PSoC5/CapSense_CSD_CSHL.c ****             {
1251:Generated_Source\PSoC5/CapSense_CSD_CSHL.c ****                 diplex = 0u;
1252:Generated_Source\PSoC5/CapSense_CSD_CSHL.c ****             }
1253:Generated_Source\PSoC5/CapSense_CSD_CSHL.c ****         #endif /* (CapSense_CSD_IS_DIPLEX_SLIDER) */
1254:Generated_Source\PSoC5/CapSense_CSD_CSHL.c **** 
1255:Generated_Source\PSoC5/CapSense_CSD_CSHL.c ****         /* Find Maximum within centroid */      
1256:Generated_Source\PSoC5/CapSense_CSD_CSHL.c ****         #if (CapSense_CSD_IS_DIPLEX_SLIDER)        
1257:Generated_Source\PSoC5/CapSense_CSD_CSHL.c ****             maximum = CapSense_CSD_FindMaximum(offset, count, CapSense_CSD_fingerThreshold[widget],
1258:Generated_Source\PSoC5/CapSense_CSD_CSHL.c ****         #else
1259:Generated_Source\PSoC5/CapSense_CSD_CSHL.c ****             maximum = CapSense_CSD_FindMaximum(offset, count, CapSense_CSD_fingerThreshold[widget])
 1086              		.loc 1 1259 0
 1087 0010 03EB4003 		add	r3, r3, r0, lsl #1
 1088 0014 9A89     		ldrh	r2, [r3, #12]
 1089 0016 3146     		mov	r1, r6
 1090 0018 2846     		mov	r0, r5
 1091              	.LVL148:
 1092 001a FFF7FEFF 		bl	CapSense_CSD_FindMaximum
 1093              	.LVL149:
1260:Generated_Source\PSoC5/CapSense_CSD_CSHL.c ****         #endif /* (CapSense_CSD_IS_DIPLEX_SLIDER) */
1261:Generated_Source\PSoC5/CapSense_CSD_CSHL.c **** 
1262:Generated_Source\PSoC5/CapSense_CSD_CSHL.c ****         if (maximum != 0xFFu)
 1094              		.loc 1 1262 0
 1095 001e FF28     		cmp	r0, #255
 1096 0020 0CD0     		beq	.L96
1263:Generated_Source\PSoC5/CapSense_CSD_CSHL.c ****         {
1264:Generated_Source\PSoC5/CapSense_CSD_CSHL.c ****             /* Calculate centroid */
1265:Generated_Source\PSoC5/CapSense_CSD_CSHL.c ****             position = (uint16) CapSense_CSD_CalcCentroid(maximum, 
 1097              		.loc 1 1265 0
 1098 0022 084B     		ldr	r3, .L98
 1099 0024 03EB4404 		add	r4, r3, r4, lsl #1
 1100 0028 A388     		ldrh	r3, [r4, #4]
 1101 002a 0093     		str	r3, [sp]
 1102 002c 4FF4C853 		mov	r3, #6400
 1103 0030 3246     		mov	r2, r6
 1104 0032 2946     		mov	r1, r5
 1105 0034 FFF7FEFF 		bl	CapSense_CSD_CalcCentroid
 1106              	.LVL150:
 1107 0038 80B2     		uxth	r0, r0
 1108              	.LVL151:
 1109 003a 01E0     		b	.L95
 1110              	.LVL152:
 1111              	.L96:
1266:Generated_Source\PSoC5/CapSense_CSD_CSHL.c ****                          offset, count, CapSense_CSD_centroidMult[widget], CapSense_CSD_noiseThresh
1267:Generated_Source\PSoC5/CapSense_CSD_CSHL.c **** 
ARM GAS  C:\Users\aryan\AppData\Local\Temp\ccEOeQjh.s 			page 43


1268:Generated_Source\PSoC5/CapSense_CSD_CSHL.c ****             #if (0u != CapSense_CSD_LINEAR_SLIDERS_POS_FILTERS_MASK)
1269:Generated_Source\PSoC5/CapSense_CSD_CSHL.c ****                 /* Check if this linear slider has enabled filters */
1270:Generated_Source\PSoC5/CapSense_CSD_CSHL.c ****                 if (0u != (posFiltersMask & CapSense_CSD_ANY_POS_FILTER))
1271:Generated_Source\PSoC5/CapSense_CSD_CSHL.c ****                 {
1272:Generated_Source\PSoC5/CapSense_CSD_CSHL.c ****                     /* Caluclate position to store filters data */
1273:Generated_Source\PSoC5/CapSense_CSD_CSHL.c ****                     posIndex  = firstTimeIndex + 1u;
1274:Generated_Source\PSoC5/CapSense_CSD_CSHL.c ****                     
1275:Generated_Source\PSoC5/CapSense_CSD_CSHL.c ****                     if (0u == CapSense_CSD_posFiltersData[firstTimeIndex])
1276:Generated_Source\PSoC5/CapSense_CSD_CSHL.c ****                     {
1277:Generated_Source\PSoC5/CapSense_CSD_CSHL.c ****                         /* Init filters */
1278:Generated_Source\PSoC5/CapSense_CSD_CSHL.c ****                         CapSense_CSD_posFiltersData[posIndex] = (uint8) position;
1279:Generated_Source\PSoC5/CapSense_CSD_CSHL.c ****                         #if ((0u != (CapSense_CSD_MEDIAN_FILTER & \
1280:Generated_Source\PSoC5/CapSense_CSD_CSHL.c ****                                      CapSense_CSD_LINEAR_SLIDERS_POS_FILTERS_MASK)) || \
1281:Generated_Source\PSoC5/CapSense_CSD_CSHL.c ****                              (0u != (CapSense_CSD_AVERAGING_FILTER & \
1282:Generated_Source\PSoC5/CapSense_CSD_CSHL.c ****                                      CapSense_CSD_LINEAR_SLIDERS_POS_FILTERS_MASK)))
1283:Generated_Source\PSoC5/CapSense_CSD_CSHL.c **** 
1284:Generated_Source\PSoC5/CapSense_CSD_CSHL.c ****                             if ( (0u != (posFiltersMask & CapSense_CSD_MEDIAN_FILTER)) || 
1285:Generated_Source\PSoC5/CapSense_CSD_CSHL.c ****                                  (0u != (posFiltersMask & CapSense_CSD_AVERAGING_FILTER)) )
1286:Generated_Source\PSoC5/CapSense_CSD_CSHL.c ****                             {
1287:Generated_Source\PSoC5/CapSense_CSD_CSHL.c ****                                 CapSense_CSD_posFiltersData[posIndex + 1u] = (uint8) position;
1288:Generated_Source\PSoC5/CapSense_CSD_CSHL.c ****                             }
1289:Generated_Source\PSoC5/CapSense_CSD_CSHL.c ****                         #endif /* ((0u != (CapSense_CSD_MEDIAN_FILTER & \
1290:Generated_Source\PSoC5/CapSense_CSD_CSHL.c ****                                *           CapSense_CSD_LINEAR_SLIDERS_POS_FILTERS_MASK)) || \
1291:Generated_Source\PSoC5/CapSense_CSD_CSHL.c ****                                *   (0u != (CapSense_CSD_AVERAGING_FILTER & \
1292:Generated_Source\PSoC5/CapSense_CSD_CSHL.c ****                                *           CapSense_CSD_LINEAR_SLIDERS_POS_FILTERS_MASK)))
1293:Generated_Source\PSoC5/CapSense_CSD_CSHL.c ****                                */
1294:Generated_Source\PSoC5/CapSense_CSD_CSHL.c ****                         
1295:Generated_Source\PSoC5/CapSense_CSD_CSHL.c ****                         CapSense_CSD_posFiltersData[firstTimeIndex] = 1u;
1296:Generated_Source\PSoC5/CapSense_CSD_CSHL.c ****                     }
1297:Generated_Source\PSoC5/CapSense_CSD_CSHL.c ****                     else
1298:Generated_Source\PSoC5/CapSense_CSD_CSHL.c ****                     {
1299:Generated_Source\PSoC5/CapSense_CSD_CSHL.c ****                         /* Do filtering */
1300:Generated_Source\PSoC5/CapSense_CSD_CSHL.c ****                         #if (0u != (CapSense_CSD_MEDIAN_FILTER & CapSense_CSD_LINEAR_SLIDERS_POS_FI
1301:Generated_Source\PSoC5/CapSense_CSD_CSHL.c ****                             if (0u != (posFiltersMask & CapSense_CSD_MEDIAN_FILTER))
1302:Generated_Source\PSoC5/CapSense_CSD_CSHL.c ****                             {
1303:Generated_Source\PSoC5/CapSense_CSD_CSHL.c ****                                 tempPos = (uint8) position;
1304:Generated_Source\PSoC5/CapSense_CSD_CSHL.c ****                                 position = CapSense_CSD_MedianFilter(position,
1305:Generated_Source\PSoC5/CapSense_CSD_CSHL.c ****                                                                 (uint16)CapSense_CSD_posFiltersData
1306:Generated_Source\PSoC5/CapSense_CSD_CSHL.c ****                                                                 (uint16)CapSense_CSD_posFiltersData
1307:Generated_Source\PSoC5/CapSense_CSD_CSHL.c ****                                 CapSense_CSD_posFiltersData[posIndex + 1u] =
1308:Generated_Source\PSoC5/CapSense_CSD_CSHL.c ****                                                                              CapSense_CSD_posFilter
1309:Generated_Source\PSoC5/CapSense_CSD_CSHL.c ****                                 CapSense_CSD_posFiltersData[posIndex] = tempPos;
1310:Generated_Source\PSoC5/CapSense_CSD_CSHL.c ****                             }
1311:Generated_Source\PSoC5/CapSense_CSD_CSHL.c ****                         #endif /*(0u != (CapSense_CSD_MEDIAN_FILTER &
1312:Generated_Source\PSoC5/CapSense_CSD_CSHL.c ****                                *         CapSense_CSD_LINEAR_SLIDERS_POS_FILTERS_MASK))
1313:Generated_Source\PSoC5/CapSense_CSD_CSHL.c ****                                */
1314:Generated_Source\PSoC5/CapSense_CSD_CSHL.c **** 
1315:Generated_Source\PSoC5/CapSense_CSD_CSHL.c ****                         #if(0u!=(CapSense_CSD_AVERAGING_FILTER & CapSense_CSD_LINEAR_SLIDERS_POS_FI
1316:Generated_Source\PSoC5/CapSense_CSD_CSHL.c ****                             if (0u != (posFiltersMask & CapSense_CSD_AVERAGING_FILTER)) 
1317:Generated_Source\PSoC5/CapSense_CSD_CSHL.c ****                             {
1318:Generated_Source\PSoC5/CapSense_CSD_CSHL.c ****                                 tempPos = (uint8) position;
1319:Generated_Source\PSoC5/CapSense_CSD_CSHL.c ****                                 position = CapSense_CSD_AveragingFilter(position,
1320:Generated_Source\PSoC5/CapSense_CSD_CSHL.c ****                                                                 (uint16)CapSense_CSD_posFiltersData
1321:Generated_Source\PSoC5/CapSense_CSD_CSHL.c ****                                                                 (uint16)CapSense_CSD_posFiltersData
1322:Generated_Source\PSoC5/CapSense_CSD_CSHL.c ****                                 CapSense_CSD_posFiltersData[posIndex+1u]=CapSense_CSD_posFiltersDat
1323:Generated_Source\PSoC5/CapSense_CSD_CSHL.c ****                                 CapSense_CSD_posFiltersData[posIndex] = tempPos;
1324:Generated_Source\PSoC5/CapSense_CSD_CSHL.c ****                             }
ARM GAS  C:\Users\aryan\AppData\Local\Temp\ccEOeQjh.s 			page 44


1325:Generated_Source\PSoC5/CapSense_CSD_CSHL.c ****                         #endif /* (0u != (CapSense_CSD_AVERAGING_FILTER & \
1326:Generated_Source\PSoC5/CapSense_CSD_CSHL.c ****                                *           CapSense_CSD_LINEAR_SLIDERS_POS_FILTERS_MASK))
1327:Generated_Source\PSoC5/CapSense_CSD_CSHL.c ****                                */
1328:Generated_Source\PSoC5/CapSense_CSD_CSHL.c **** 
1329:Generated_Source\PSoC5/CapSense_CSD_CSHL.c ****                         #if (0u != (CapSense_CSD_IIR2_FILTER & CapSense_CSD_LINEAR_SLIDERS_POS_FILT
1330:Generated_Source\PSoC5/CapSense_CSD_CSHL.c ****                             if (0u != (posFiltersMask & CapSense_CSD_IIR2_FILTER)) 
1331:Generated_Source\PSoC5/CapSense_CSD_CSHL.c ****                             {
1332:Generated_Source\PSoC5/CapSense_CSD_CSHL.c ****                                 position = CapSense_CSD_IIR2Filter(position,
1333:Generated_Source\PSoC5/CapSense_CSD_CSHL.c ****                                                                     (uint16)CapSense_CSD_posFilters
1334:Generated_Source\PSoC5/CapSense_CSD_CSHL.c ****                                 CapSense_CSD_posFiltersData[posIndex] = (uint8) position;
1335:Generated_Source\PSoC5/CapSense_CSD_CSHL.c ****                             }
1336:Generated_Source\PSoC5/CapSense_CSD_CSHL.c ****                         #endif /* (0u != (CapSense_CSD_IIR2_FILTER & \
1337:Generated_Source\PSoC5/CapSense_CSD_CSHL.c ****                                *          CapSense_CSD_LINEAR_SLIDERS_POS_FILTERS_MASK))
1338:Generated_Source\PSoC5/CapSense_CSD_CSHL.c ****                                */
1339:Generated_Source\PSoC5/CapSense_CSD_CSHL.c **** 
1340:Generated_Source\PSoC5/CapSense_CSD_CSHL.c ****                         #if (0u != (CapSense_CSD_IIR4_FILTER & CapSense_CSD_LINEAR_SLIDERS_POS_FILT
1341:Generated_Source\PSoC5/CapSense_CSD_CSHL.c ****                             if (0u != (posFiltersMask & CapSense_CSD_IIR4_FILTER))
1342:Generated_Source\PSoC5/CapSense_CSD_CSHL.c ****                             {
1343:Generated_Source\PSoC5/CapSense_CSD_CSHL.c ****                                 position = CapSense_CSD_IIR4Filter(position,
1344:Generated_Source\PSoC5/CapSense_CSD_CSHL.c ****                                                                     (uint16)CapSense_CSD_posFilters
1345:Generated_Source\PSoC5/CapSense_CSD_CSHL.c ****                                 CapSense_CSD_posFiltersData[posIndex] = (uint8) position;
1346:Generated_Source\PSoC5/CapSense_CSD_CSHL.c ****                             }                                
1347:Generated_Source\PSoC5/CapSense_CSD_CSHL.c ****                         #endif /* (0u != (CapSense_CSD_IIR4_FILTER & \
1348:Generated_Source\PSoC5/CapSense_CSD_CSHL.c ****                                *          CapSense_CSD_LINEAR_SLIDERS_POS_FILTERS_MASK))
1349:Generated_Source\PSoC5/CapSense_CSD_CSHL.c ****                                */
1350:Generated_Source\PSoC5/CapSense_CSD_CSHL.c **** 
1351:Generated_Source\PSoC5/CapSense_CSD_CSHL.c ****                         #if (0u != (CapSense_CSD_JITTER_FILTER & CapSense_CSD_LINEAR_SLIDERS_POS_FI
1352:Generated_Source\PSoC5/CapSense_CSD_CSHL.c ****                             if (0u != (posFiltersMask & CapSense_CSD_JITTER_FILTER))
1353:Generated_Source\PSoC5/CapSense_CSD_CSHL.c ****                             {
1354:Generated_Source\PSoC5/CapSense_CSD_CSHL.c ****                                 position = CapSense_CSD_JitterFilter(position,
1355:Generated_Source\PSoC5/CapSense_CSD_CSHL.c ****                                                                     (uint16)CapSense_CSD_posFilters
1356:Generated_Source\PSoC5/CapSense_CSD_CSHL.c ****                                 CapSense_CSD_posFiltersData[posIndex] = (uint8) position;
1357:Generated_Source\PSoC5/CapSense_CSD_CSHL.c ****                             }
1358:Generated_Source\PSoC5/CapSense_CSD_CSHL.c ****                         #endif /* (0u != (CapSense_CSD_JITTER_FILTER & \
1359:Generated_Source\PSoC5/CapSense_CSD_CSHL.c ****                                *           CapSense_CSD_LINEAR_SLIDERS_POS_FILTERS_MASK))
1360:Generated_Source\PSoC5/CapSense_CSD_CSHL.c ****                                */
1361:Generated_Source\PSoC5/CapSense_CSD_CSHL.c ****                     }
1362:Generated_Source\PSoC5/CapSense_CSD_CSHL.c ****                 }
1363:Generated_Source\PSoC5/CapSense_CSD_CSHL.c ****             #endif /* (0u != CapSense_CSD_LINEAR_SLIDERS_POS_FILTERS_MASK) */
1364:Generated_Source\PSoC5/CapSense_CSD_CSHL.c **** 
1365:Generated_Source\PSoC5/CapSense_CSD_CSHL.c ****         }
1366:Generated_Source\PSoC5/CapSense_CSD_CSHL.c ****         else
1367:Generated_Source\PSoC5/CapSense_CSD_CSHL.c ****         {
1368:Generated_Source\PSoC5/CapSense_CSD_CSHL.c ****             /* The maximum wasn't found */
1369:Generated_Source\PSoC5/CapSense_CSD_CSHL.c ****             position = 0xFFFFu;
 1112              		.loc 1 1369 0
 1113 003c 4FF6FF70 		movw	r0, #65535
 1114              	.LVL153:
 1115              	.L95:
1370:Generated_Source\PSoC5/CapSense_CSD_CSHL.c **** 
1371:Generated_Source\PSoC5/CapSense_CSD_CSHL.c ****             #if(0u != CapSense_CSD_LINEAR_SLIDERS_POS_FILTERS_MASK)
1372:Generated_Source\PSoC5/CapSense_CSD_CSHL.c ****                 /* Reset the filters */
1373:Generated_Source\PSoC5/CapSense_CSD_CSHL.c ****                 if(0u != (posFiltersMask & CapSense_CSD_ANY_POS_FILTER))
1374:Generated_Source\PSoC5/CapSense_CSD_CSHL.c ****                 {
1375:Generated_Source\PSoC5/CapSense_CSD_CSHL.c ****                     CapSense_CSD_posFiltersData[firstTimeIndex] = 0u;
1376:Generated_Source\PSoC5/CapSense_CSD_CSHL.c ****                 }
1377:Generated_Source\PSoC5/CapSense_CSD_CSHL.c ****             #endif /* (0u != CapSense_CSD_LINEAR_SLIDERS_POS_FILTERS_MASK) */
ARM GAS  C:\Users\aryan\AppData\Local\Temp\ccEOeQjh.s 			page 45


1378:Generated_Source\PSoC5/CapSense_CSD_CSHL.c ****         }
1379:Generated_Source\PSoC5/CapSense_CSD_CSHL.c **** 
1380:Generated_Source\PSoC5/CapSense_CSD_CSHL.c ****         
1381:Generated_Source\PSoC5/CapSense_CSD_CSHL.c ****         return (position);
1382:Generated_Source\PSoC5/CapSense_CSD_CSHL.c ****     }
 1116              		.loc 1 1382 0
 1117 0040 02B0     		add	sp, sp, #8
 1118              		.cfi_def_cfa_offset 16
 1119              		@ sp needed
 1120 0042 70BD     		pop	{r4, r5, r6, pc}
 1121              	.LVL154:
 1122              	.L99:
 1123              		.align	2
 1124              	.L98:
 1125 0044 00000000 		.word	.LANCHOR0
 1126              		.cfi_endproc
 1127              	.LFE13:
 1128              		.size	CapSense_CSD_GetCentroidPos, .-CapSense_CSD_GetCentroidPos
 1129              		.global	CapSense_CSD_centroidMult
 1130              		.global	CapSense_CSD_numberOfSensors
 1131              		.global	CapSense_CSD_rawDataIndex
 1132              		.global	CapSense_CSD_debounceCounter
 1133              		.global	CapSense_CSD_debounce
 1134              		.global	CapSense_CSD_hysteresis
 1135              		.global	CapSense_CSD_noiseThreshold
 1136              		.global	CapSense_CSD_fingerThreshold
 1137              		.comm	CapSense_CSD_lowBaselineResetCnt,7,4
 1138              		.comm	CapSense_CSD_sensorOnMask,1,4
 1139              		.comm	CapSense_CSD_sensorSignal,14,4
 1140              		.comm	CapSense_CSD_sensorBaselineLow,7,4
 1141              		.comm	CapSense_CSD_sensorBaseline,14,4
 1142              		.section	.rodata
 1143              		.align	2
 1144              		.set	.LANCHOR0,. + 0
 1145              		.type	CapSense_CSD_debounce, %object
 1146              		.size	CapSense_CSD_debounce, 3
 1147              	CapSense_CSD_debounce:
 1148 0000 01       		.byte	1
 1149 0001 05       		.byte	5
 1150 0002 05       		.byte	5
 1151 0003 00       		.space	1
 1152              		.type	CapSense_CSD_noiseThreshold, %object
 1153              		.size	CapSense_CSD_noiseThreshold, 6
 1154              	CapSense_CSD_noiseThreshold:
 1155 0004 2A00     		.short	42
 1156 0006 2D00     		.short	45
 1157 0008 2100     		.short	33
 1158 000a 0000     		.space	2
 1159              		.type	CapSense_CSD_fingerThreshold, %object
 1160              		.size	CapSense_CSD_fingerThreshold, 6
 1161              	CapSense_CSD_fingerThreshold:
 1162 000c 5400     		.short	84
 1163 000e 7C00     		.short	124
 1164 0010 4200     		.short	66
 1165 0012 0000     		.space	2
 1166              		.type	CapSense_CSD_hysteresis, %object
 1167              		.size	CapSense_CSD_hysteresis, 6
ARM GAS  C:\Users\aryan\AppData\Local\Temp\ccEOeQjh.s 			page 46


 1168              	CapSense_CSD_hysteresis:
 1169 0014 0000     		.short	0
 1170 0016 1200     		.short	18
 1171 0018 0900     		.short	9
 1172 001a 0000     		.space	2
 1173              		.type	CapSense_CSD_rawDataIndex, %object
 1174              		.size	CapSense_CSD_rawDataIndex, 3
 1175              	CapSense_CSD_rawDataIndex:
 1176 001c 02       		.byte	2
 1177 001d 00       		.byte	0
 1178 001e 01       		.byte	1
 1179 001f 00       		.space	1
 1180              		.type	CapSense_CSD_numberOfSensors, %object
 1181              		.size	CapSense_CSD_numberOfSensors, 3
 1182              	CapSense_CSD_numberOfSensors:
 1183 0020 05       		.byte	5
 1184 0021 01       		.byte	1
 1185 0022 01       		.byte	1
 1186 0023 00       		.space	1
 1187              		.type	CapSense_CSD_centroidMult, %object
 1188              		.size	CapSense_CSD_centroidMult, 2
 1189              	CapSense_CSD_centroidMult:
 1190 0024 0019     		.short	6400
 1191              		.bss
 1192              		.align	2
 1193              		.set	.LANCHOR1,. + 0
 1194              		.type	CapSense_CSD_debounceCounter, %object
 1195              		.size	CapSense_CSD_debounceCounter, 3
 1196              	CapSense_CSD_debounceCounter:
 1197 0000 000000   		.space	3
 1198 0003 00       		.space	1
 1199              		.type	CapSense_CSD_centroid.5259, %object
 1200              		.size	CapSense_CSD_centroid.5259, 6
 1201              	CapSense_CSD_centroid.5259:
 1202 0004 00000000 		.space	6
 1202      0000
 1203              		.text
 1204              	.Letext0:
 1205              		.file 2 "Generated_Source\\PSoC5\\cytypes.h"
 1206              		.file 3 "Generated_Source\\PSoC5\\CapSense_CSD.h"
 1207              		.file 4 "Generated_Source\\PSoC5\\CapSense_CSD_CSHL.h"
 1208              		.section	.debug_info,"",%progbits
 1209              	.Ldebug_info0:
 1210 0000 DB080000 		.4byte	0x8db
 1211 0004 0400     		.2byte	0x4
 1212 0006 00000000 		.4byte	.Ldebug_abbrev0
 1213 000a 04       		.byte	0x4
 1214 000b 01       		.uleb128 0x1
 1215 000c 35040000 		.4byte	.LASF79
 1216 0010 0C       		.byte	0xc
 1217 0011 00000000 		.4byte	.LASF80
 1218 0015 C3020000 		.4byte	.LASF81
 1219 0019 00000000 		.4byte	.Ldebug_ranges0+0
 1220 001d 00000000 		.4byte	0
 1221 0021 00000000 		.4byte	.Ldebug_line0
 1222 0025 02       		.uleb128 0x2
 1223 0026 01       		.byte	0x1
ARM GAS  C:\Users\aryan\AppData\Local\Temp\ccEOeQjh.s 			page 47


 1224 0027 06       		.byte	0x6
 1225 0028 C7000000 		.4byte	.LASF0
 1226 002c 02       		.uleb128 0x2
 1227 002d 01       		.byte	0x1
 1228 002e 08       		.byte	0x8
 1229 002f 00040000 		.4byte	.LASF1
 1230 0033 02       		.uleb128 0x2
 1231 0034 02       		.byte	0x2
 1232 0035 05       		.byte	0x5
 1233 0036 1D040000 		.4byte	.LASF2
 1234 003a 02       		.uleb128 0x2
 1235 003b 02       		.byte	0x2
 1236 003c 07       		.byte	0x7
 1237 003d 60020000 		.4byte	.LASF3
 1238 0041 02       		.uleb128 0x2
 1239 0042 04       		.byte	0x4
 1240 0043 05       		.byte	0x5
 1241 0044 19010000 		.4byte	.LASF4
 1242 0048 02       		.uleb128 0x2
 1243 0049 04       		.byte	0x4
 1244 004a 07       		.byte	0x7
 1245 004b 1E020000 		.4byte	.LASF5
 1246 004f 02       		.uleb128 0x2
 1247 0050 08       		.byte	0x8
 1248 0051 05       		.byte	0x5
 1249 0052 B9000000 		.4byte	.LASF6
 1250 0056 02       		.uleb128 0x2
 1251 0057 08       		.byte	0x8
 1252 0058 07       		.byte	0x7
 1253 0059 A2000000 		.4byte	.LASF7
 1254 005d 03       		.uleb128 0x3
 1255 005e 04       		.byte	0x4
 1256 005f 05       		.byte	0x5
 1257 0060 696E7400 		.ascii	"int\000"
 1258 0064 02       		.uleb128 0x2
 1259 0065 04       		.byte	0x4
 1260 0066 07       		.byte	0x7
 1261 0067 08020000 		.4byte	.LASF8
 1262 006b 04       		.uleb128 0x4
 1263 006c 52010000 		.4byte	.LASF9
 1264 0070 02       		.byte	0x2
 1265 0071 E801     		.2byte	0x1e8
 1266 0073 2C000000 		.4byte	0x2c
 1267 0077 04       		.uleb128 0x4
 1268 0078 4D000000 		.4byte	.LASF10
 1269 007c 02       		.byte	0x2
 1270 007d E901     		.2byte	0x1e9
 1271 007f 3A000000 		.4byte	0x3a
 1272 0083 04       		.uleb128 0x4
 1273 0084 5F010000 		.4byte	.LASF11
 1274 0088 02       		.byte	0x2
 1275 0089 EA01     		.2byte	0x1ea
 1276 008b 48000000 		.4byte	0x48
 1277 008f 04       		.uleb128 0x4
 1278 0090 23060000 		.4byte	.LASF12
 1279 0094 02       		.byte	0x2
 1280 0095 EC01     		.2byte	0x1ec
ARM GAS  C:\Users\aryan\AppData\Local\Temp\ccEOeQjh.s 			page 48


 1281 0097 33000000 		.4byte	0x33
 1282 009b 04       		.uleb128 0x4
 1283 009c EC000000 		.4byte	.LASF13
 1284 00a0 02       		.byte	0x2
 1285 00a1 ED01     		.2byte	0x1ed
 1286 00a3 41000000 		.4byte	0x41
 1287 00a7 02       		.uleb128 0x2
 1288 00a8 04       		.byte	0x4
 1289 00a9 04       		.byte	0x4
 1290 00aa 98030000 		.4byte	.LASF14
 1291 00ae 02       		.uleb128 0x2
 1292 00af 08       		.byte	0x8
 1293 00b0 04       		.byte	0x4
 1294 00b1 58010000 		.4byte	.LASF15
 1295 00b5 02       		.uleb128 0x2
 1296 00b6 01       		.byte	0x1
 1297 00b7 08       		.byte	0x8
 1298 00b8 54050000 		.4byte	.LASF16
 1299 00bc 02       		.uleb128 0x2
 1300 00bd 08       		.byte	0x8
 1301 00be 04       		.byte	0x4
 1302 00bf 91010000 		.4byte	.LASF17
 1303 00c3 02       		.uleb128 0x2
 1304 00c4 04       		.byte	0x4
 1305 00c5 07       		.byte	0x7
 1306 00c6 BA020000 		.4byte	.LASF18
 1307 00ca 05       		.uleb128 0x5
 1308 00cb A5010000 		.4byte	.LASF19
 1309 00cf 01       		.byte	0x1
 1310 00d0 81       		.byte	0x81
 1311 00d1 00000000 		.4byte	.LFB0
 1312 00d5 48000000 		.4byte	.LFE0-.LFB0
 1313 00d9 01       		.uleb128 0x1
 1314 00da 9C       		.byte	0x9c
 1315 00db FC000000 		.4byte	0xfc
 1316 00df 06       		.uleb128 0x6
 1317 00e0 73020000 		.4byte	.LASF21
 1318 00e4 01       		.byte	0x1
 1319 00e5 81       		.byte	0x81
 1320 00e6 6B000000 		.4byte	0x6b
 1321 00ea 01       		.uleb128 0x1
 1322 00eb 50       		.byte	0x50
 1323 00ec 07       		.uleb128 0x7
 1324 00ed 27040000 		.4byte	.LASF23
 1325 00f1 01       		.byte	0x1
 1326 00f2 85       		.byte	0x85
 1327 00f3 6B000000 		.4byte	0x6b
 1328 00f7 00000000 		.4byte	.LLST0
 1329 00fb 00       		.byte	0
 1330 00fc 05       		.uleb128 0x5
 1331 00fd 74000000 		.4byte	.LASF20
 1332 0101 01       		.byte	0x1
 1333 0102 CD       		.byte	0xcd
 1334 0103 00000000 		.4byte	.LFB1
 1335 0107 18000000 		.4byte	.LFE1-.LFB1
 1336 010b 01       		.uleb128 0x1
 1337 010c 9C       		.byte	0x9c
ARM GAS  C:\Users\aryan\AppData\Local\Temp\ccEOeQjh.s 			page 49


 1338 010d 4E010000 		.4byte	0x14e
 1339 0111 08       		.uleb128 0x8
 1340 0112 73020000 		.4byte	.LASF21
 1341 0116 01       		.byte	0x1
 1342 0117 CD       		.byte	0xcd
 1343 0118 6B000000 		.4byte	0x6b
 1344 011c 20000000 		.4byte	.LLST1
 1345 0120 09       		.uleb128 0x9
 1346 0121 08000000 		.4byte	.LVL5
 1347 0125 BD080000 		.4byte	0x8bd
 1348 0129 34010000 		.4byte	0x134
 1349 012d 0A       		.uleb128 0xa
 1350 012e 01       		.uleb128 0x1
 1351 012f 50       		.byte	0x50
 1352 0130 02       		.uleb128 0x2
 1353 0131 74       		.byte	0x74
 1354 0132 00       		.sleb128 0
 1355 0133 00       		.byte	0
 1356 0134 0B       		.uleb128 0xb
 1357 0135 0C000000 		.4byte	.LVL6
 1358 0139 C8080000 		.4byte	0x8c8
 1359 013d 0C       		.uleb128 0xc
 1360 013e 16000000 		.4byte	.LVL7
 1361 0142 CA000000 		.4byte	0xca
 1362 0146 0A       		.uleb128 0xa
 1363 0147 01       		.uleb128 0x1
 1364 0148 50       		.byte	0x50
 1365 0149 02       		.uleb128 0x2
 1366 014a 74       		.byte	0x74
 1367 014b 00       		.sleb128 0
 1368 014c 00       		.byte	0
 1369 014d 00       		.byte	0
 1370 014e 0D       		.uleb128 0xd
 1371 014f BF030000 		.4byte	.LASF22
 1372 0153 01       		.byte	0x1
 1373 0154 0101     		.2byte	0x101
 1374 0156 00000000 		.4byte	.LFB2
 1375 015a 16000000 		.4byte	.LFE2-.LFB2
 1376 015e 01       		.uleb128 0x1
 1377 015f 9C       		.byte	0x9c
 1378 0160 83010000 		.4byte	0x183
 1379 0164 0E       		.uleb128 0xe
 1380 0165 6900     		.ascii	"i\000"
 1381 0167 01       		.byte	0x1
 1382 0168 0401     		.2byte	0x104
 1383 016a 6B000000 		.4byte	0x6b
 1384 016e 41000000 		.4byte	.LLST2
 1385 0172 0C       		.uleb128 0xc
 1386 0173 0C000000 		.4byte	.LVL10
 1387 0177 FC000000 		.4byte	0xfc
 1388 017b 0A       		.uleb128 0xa
 1389 017c 01       		.uleb128 0x1
 1390 017d 50       		.byte	0x50
 1391 017e 02       		.uleb128 0x2
 1392 017f 74       		.byte	0x74
 1393 0180 00       		.sleb128 0
 1394 0181 00       		.byte	0
ARM GAS  C:\Users\aryan\AppData\Local\Temp\ccEOeQjh.s 			page 50


 1395 0182 00       		.byte	0
 1396 0183 0D       		.uleb128 0xd
 1397 0184 18030000 		.4byte	.LASF24
 1398 0188 01       		.byte	0x1
 1399 0189 2201     		.2byte	0x122
 1400 018b 00000000 		.4byte	.LFB3
 1401 018f 44000000 		.4byte	.LFE3-.LFB3
 1402 0193 01       		.uleb128 0x1
 1403 0194 9C       		.byte	0x9c
 1404 0195 E8010000 		.4byte	0x1e8
 1405 0199 0E       		.uleb128 0xe
 1406 019a 6900     		.ascii	"i\000"
 1407 019c 01       		.byte	0x1
 1408 019d 2501     		.2byte	0x125
 1409 019f 6B000000 		.4byte	0x6b
 1410 01a3 6B000000 		.4byte	.LLST3
 1411 01a7 0F       		.uleb128 0xf
 1412 01a8 706F7300 		.ascii	"pos\000"
 1413 01ac 01       		.byte	0x1
 1414 01ad 2601     		.2byte	0x126
 1415 01af 6B000000 		.4byte	0x6b
 1416 01b3 01       		.uleb128 0x1
 1417 01b4 52       		.byte	0x52
 1418 01b5 10       		.uleb128 0x10
 1419 01b6 5A030000 		.4byte	.LASF25
 1420 01ba 01       		.byte	0x1
 1421 01bb 2701     		.2byte	0x127
 1422 01bd 6B000000 		.4byte	0x6b
 1423 01c1 89000000 		.4byte	.LLST4
 1424 01c5 0B       		.uleb128 0xb
 1425 01c6 06000000 		.4byte	.LVL13
 1426 01ca D3080000 		.4byte	0x8d3
 1427 01ce 0B       		.uleb128 0xb
 1428 01cf 0A000000 		.4byte	.LVL14
 1429 01d3 C8080000 		.4byte	0x8c8
 1430 01d7 0C       		.uleb128 0xc
 1431 01d8 32000000 		.4byte	.LVL18
 1432 01dc CA000000 		.4byte	0xca
 1433 01e0 0A       		.uleb128 0xa
 1434 01e1 01       		.uleb128 0x1
 1435 01e2 50       		.byte	0x50
 1436 01e3 02       		.uleb128 0x2
 1437 01e4 74       		.byte	0x74
 1438 01e5 00       		.sleb128 0
 1439 01e6 00       		.byte	0
 1440 01e7 00       		.byte	0
 1441 01e8 0D       		.uleb128 0xd
 1442 01e9 EE040000 		.4byte	.LASF26
 1443 01ed 01       		.byte	0x1
 1444 01ee 6501     		.2byte	0x165
 1445 01f0 00000000 		.4byte	.LFB4
 1446 01f4 B0000000 		.4byte	.LFE4-.LFB4
 1447 01f8 01       		.uleb128 0x1
 1448 01f9 9C       		.byte	0x9c
 1449 01fa 6F020000 		.4byte	0x26f
 1450 01fe 11       		.uleb128 0x11
 1451 01ff 73020000 		.4byte	.LASF21
ARM GAS  C:\Users\aryan\AppData\Local\Temp\ccEOeQjh.s 			page 51


 1452 0203 01       		.byte	0x1
 1453 0204 6501     		.2byte	0x165
 1454 0206 6B000000 		.4byte	0x6b
 1455 020a BE000000 		.4byte	.LLST5
 1456 020e 10       		.uleb128 0x10
 1457 020f 94020000 		.4byte	.LASF27
 1458 0213 01       		.byte	0x1
 1459 0214 6801     		.2byte	0x168
 1460 0216 83000000 		.4byte	0x83
 1461 021a F8000000 		.4byte	.LLST6
 1462 021e 10       		.uleb128 0x10
 1463 021f 65060000 		.4byte	.LASF28
 1464 0223 01       		.byte	0x1
 1465 0224 6901     		.2byte	0x169
 1466 0226 77000000 		.4byte	0x77
 1467 022a 25010000 		.4byte	.LLST7
 1468 022e 10       		.uleb128 0x10
 1469 022f 54000000 		.4byte	.LASF29
 1470 0233 01       		.byte	0x1
 1471 0234 6A01     		.2byte	0x16a
 1472 0236 77000000 		.4byte	0x77
 1473 023a 43010000 		.4byte	.LLST8
 1474 023e 10       		.uleb128 0x10
 1475 023f 27040000 		.4byte	.LASF23
 1476 0243 01       		.byte	0x1
 1477 0244 6B01     		.2byte	0x16b
 1478 0246 6B000000 		.4byte	0x6b
 1479 024a 61010000 		.4byte	.LLST9
 1480 024e 10       		.uleb128 0x10
 1481 024f 0E040000 		.4byte	.LASF30
 1482 0253 01       		.byte	0x1
 1483 0254 6C01     		.2byte	0x16c
 1484 0256 77000000 		.4byte	0x77
 1485 025a 97010000 		.4byte	.LLST10
 1486 025e 0C       		.uleb128 0xc
 1487 025f 42000000 		.4byte	.LVL33
 1488 0263 CA000000 		.4byte	0xca
 1489 0267 0A       		.uleb128 0xa
 1490 0268 01       		.uleb128 0x1
 1491 0269 50       		.byte	0x50
 1492 026a 02       		.uleb128 0x2
 1493 026b 74       		.byte	0x74
 1494 026c 00       		.sleb128 0
 1495 026d 00       		.byte	0
 1496 026e 00       		.byte	0
 1497 026f 0D       		.uleb128 0xd
 1498 0270 73050000 		.4byte	.LASF31
 1499 0274 01       		.byte	0x1
 1500 0275 1202     		.2byte	0x212
 1501 0277 00000000 		.4byte	.LFB5
 1502 027b 2C000000 		.4byte	.LFE5-.LFB5
 1503 027f 01       		.uleb128 0x1
 1504 0280 9C       		.byte	0x9c
 1505 0281 C2020000 		.4byte	0x2c2
 1506 0285 0E       		.uleb128 0xe
 1507 0286 6900     		.ascii	"i\000"
 1508 0288 01       		.byte	0x1
ARM GAS  C:\Users\aryan\AppData\Local\Temp\ccEOeQjh.s 			page 52


 1509 0289 1502     		.2byte	0x215
 1510 028b 6B000000 		.4byte	0x6b
 1511 028f AA010000 		.4byte	.LLST11
 1512 0293 0F       		.uleb128 0xf
 1513 0294 706F7300 		.ascii	"pos\000"
 1514 0298 01       		.byte	0x1
 1515 0299 1602     		.2byte	0x216
 1516 029b 6B000000 		.4byte	0x6b
 1517 029f 01       		.uleb128 0x1
 1518 02a0 52       		.byte	0x52
 1519 02a1 10       		.uleb128 0x10
 1520 02a2 5A030000 		.4byte	.LASF25
 1521 02a6 01       		.byte	0x1
 1522 02a7 1702     		.2byte	0x217
 1523 02a9 6B000000 		.4byte	0x6b
 1524 02ad D4010000 		.4byte	.LLST12
 1525 02b1 0C       		.uleb128 0xc
 1526 02b2 1E000000 		.4byte	.LVL48
 1527 02b6 E8010000 		.4byte	0x1e8
 1528 02ba 0A       		.uleb128 0xa
 1529 02bb 01       		.uleb128 0x1
 1530 02bc 50       		.byte	0x50
 1531 02bd 02       		.uleb128 0x2
 1532 02be 74       		.byte	0x74
 1533 02bf 00       		.sleb128 0
 1534 02c0 00       		.byte	0
 1535 02c1 00       		.byte	0
 1536 02c2 12       		.uleb128 0x12
 1537 02c3 F2000000 		.4byte	.LASF37
 1538 02c7 01       		.byte	0x1
 1539 02c8 4C02     		.2byte	0x24c
 1540 02ca 6B000000 		.4byte	0x6b
 1541 02ce 00000000 		.4byte	.LFB6
 1542 02d2 9C000000 		.4byte	.LFE6-.LFB6
 1543 02d6 01       		.uleb128 0x1
 1544 02d7 9C       		.byte	0x9c
 1545 02d8 5B030000 		.4byte	0x35b
 1546 02dc 11       		.uleb128 0x11
 1547 02dd 73020000 		.4byte	.LASF21
 1548 02e1 01       		.byte	0x1
 1549 02e2 4C02     		.2byte	0x24c
 1550 02e4 6B000000 		.4byte	0x6b
 1551 02e8 09020000 		.4byte	.LLST13
 1552 02ec 10       		.uleb128 0x10
 1553 02ed D0050000 		.4byte	.LASF32
 1554 02f1 01       		.byte	0x1
 1555 02f2 4F02     		.2byte	0x24f
 1556 02f4 6B000000 		.4byte	0x6b
 1557 02f8 43020000 		.4byte	.LLST14
 1558 02fc 0E       		.uleb128 0xe
 1559 02fd 706F7300 		.ascii	"pos\000"
 1560 0301 01       		.byte	0x1
 1561 0302 5102     		.2byte	0x251
 1562 0304 6B000000 		.4byte	0x6b
 1563 0308 6D020000 		.4byte	.LLST15
 1564 030c 13       		.uleb128 0x13
 1565 030d 2E040000 		.4byte	.LASF33
ARM GAS  C:\Users\aryan\AppData\Local\Temp\ccEOeQjh.s 			page 53


 1566 0311 01       		.byte	0x1
 1567 0312 5202     		.2byte	0x252
 1568 0314 6B000000 		.4byte	0x6b
 1569 0318 01       		.uleb128 0x1
 1570 0319 53       		.byte	0x53
 1571 031a 10       		.uleb128 0x10
 1572 031b 27040000 		.4byte	.LASF23
 1573 031f 01       		.byte	0x1
 1574 0320 5402     		.2byte	0x254
 1575 0322 6B000000 		.4byte	0x6b
 1576 0326 80020000 		.4byte	.LLST16
 1577 032a 10       		.uleb128 0x10
 1578 032b 64000000 		.4byte	.LASF34
 1579 032f 01       		.byte	0x1
 1580 0330 5502     		.2byte	0x255
 1581 0332 77000000 		.4byte	0x77
 1582 0336 AB020000 		.4byte	.LLST17
 1583 033a 10       		.uleb128 0x10
 1584 033b 86010000 		.4byte	.LASF35
 1585 033f 01       		.byte	0x1
 1586 0340 5602     		.2byte	0x256
 1587 0342 77000000 		.4byte	0x77
 1588 0346 BE020000 		.4byte	.LLST18
 1589 034a 10       		.uleb128 0x10
 1590 034b B1020000 		.4byte	.LASF36
 1591 034f 01       		.byte	0x1
 1592 0350 5702     		.2byte	0x257
 1593 0352 6B000000 		.4byte	0x6b
 1594 0356 DC020000 		.4byte	.LLST19
 1595 035a 00       		.byte	0
 1596 035b 12       		.uleb128 0x12
 1597 035c 02060000 		.4byte	.LASF38
 1598 0360 01       		.byte	0x1
 1599 0361 9C02     		.2byte	0x29c
 1600 0363 6B000000 		.4byte	0x6b
 1601 0367 00000000 		.4byte	.LFB7
 1602 036b 2C000000 		.4byte	.LFE7-.LFB7
 1603 036f 01       		.uleb128 0x1
 1604 0370 9C       		.byte	0x9c
 1605 0371 C6030000 		.4byte	0x3c6
 1606 0375 11       		.uleb128 0x11
 1607 0376 27040000 		.4byte	.LASF23
 1608 037a 01       		.byte	0x1
 1609 037b 9C02     		.2byte	0x29c
 1610 037d 6B000000 		.4byte	0x6b
 1611 0381 EF020000 		.4byte	.LLST20
 1612 0385 10       		.uleb128 0x10
 1613 0386 D3000000 		.4byte	.LASF39
 1614 038a 01       		.byte	0x1
 1615 038b 9F02     		.2byte	0x29f
 1616 038d 6B000000 		.4byte	0x6b
 1617 0391 10030000 		.4byte	.LLST21
 1618 0395 10       		.uleb128 0x10
 1619 0396 DC000000 		.4byte	.LASF40
 1620 039a 01       		.byte	0x1
 1621 039b A002     		.2byte	0x2a0
 1622 039d 6B000000 		.4byte	0x6b
ARM GAS  C:\Users\aryan\AppData\Local\Temp\ccEOeQjh.s 			page 54


 1623 03a1 2E030000 		.4byte	.LLST22
 1624 03a5 10       		.uleb128 0x10
 1625 03a6 13010000 		.4byte	.LASF41
 1626 03aa 01       		.byte	0x1
 1627 03ab A102     		.2byte	0x2a1
 1628 03ad 6B000000 		.4byte	0x6b
 1629 03b1 41030000 		.4byte	.LLST23
 1630 03b5 0C       		.uleb128 0xc
 1631 03b6 18000000 		.4byte	.LVL78
 1632 03ba C2020000 		.4byte	0x2c2
 1633 03be 0A       		.uleb128 0xa
 1634 03bf 01       		.uleb128 0x1
 1635 03c0 50       		.byte	0x50
 1636 03c1 02       		.uleb128 0x2
 1637 03c2 74       		.byte	0x74
 1638 03c3 00       		.sleb128 0
 1639 03c4 00       		.byte	0
 1640 03c5 00       		.byte	0
 1641 03c6 12       		.uleb128 0x12
 1642 03c7 DE050000 		.4byte	.LASF42
 1643 03cb 01       		.byte	0x1
 1644 03cc C802     		.2byte	0x2c8
 1645 03ce 6B000000 		.4byte	0x6b
 1646 03d2 00000000 		.4byte	.LFB8
 1647 03d6 1E000000 		.4byte	.LFE8-.LFB8
 1648 03da 01       		.uleb128 0x1
 1649 03db 9C       		.byte	0x9c
 1650 03dc 0F040000 		.4byte	0x40f
 1651 03e0 0E       		.uleb128 0xe
 1652 03e1 6900     		.ascii	"i\000"
 1653 03e3 01       		.byte	0x1
 1654 03e4 CB02     		.2byte	0x2cb
 1655 03e6 6B000000 		.4byte	0x6b
 1656 03ea 60030000 		.4byte	.LLST24
 1657 03ee 10       		.uleb128 0x10
 1658 03ef 13010000 		.4byte	.LASF41
 1659 03f3 01       		.byte	0x1
 1660 03f4 CC02     		.2byte	0x2cc
 1661 03f6 6B000000 		.4byte	0x6b
 1662 03fa 8A030000 		.4byte	.LLST25
 1663 03fe 0C       		.uleb128 0xc
 1664 03ff 0E000000 		.4byte	.LVL85
 1665 0403 5B030000 		.4byte	0x35b
 1666 0407 0A       		.uleb128 0xa
 1667 0408 01       		.uleb128 0x1
 1668 0409 50       		.byte	0x50
 1669 040a 02       		.uleb128 0x2
 1670 040b 74       		.byte	0x74
 1671 040c 00       		.sleb128 0
 1672 040d 00       		.byte	0
 1673 040e 00       		.byte	0
 1674 040f 0D       		.uleb128 0xd
 1675 0410 59050000 		.4byte	.LASF43
 1676 0414 01       		.byte	0x1
 1677 0415 F602     		.2byte	0x2f6
 1678 0417 00000000 		.4byte	.LFB9
 1679 041b 38000000 		.4byte	.LFE9-.LFB9
ARM GAS  C:\Users\aryan\AppData\Local\Temp\ccEOeQjh.s 			page 55


 1680 041f 01       		.uleb128 0x1
 1681 0420 9C       		.byte	0x9c
 1682 0421 74040000 		.4byte	0x474
 1683 0425 11       		.uleb128 0x11
 1684 0426 27040000 		.4byte	.LASF23
 1685 042a 01       		.byte	0x1
 1686 042b F602     		.2byte	0x2f6
 1687 042d 6B000000 		.4byte	0x6b
 1688 0431 A9030000 		.4byte	.LLST26
 1689 0435 0F       		.uleb128 0xf
 1690 0436 706F7300 		.ascii	"pos\000"
 1691 043a 01       		.byte	0x1
 1692 043b F902     		.2byte	0x2f9
 1693 043d 6B000000 		.4byte	0x6b
 1694 0441 01       		.uleb128 0x1
 1695 0442 50       		.byte	0x50
 1696 0443 10       		.uleb128 0x10
 1697 0444 5A030000 		.4byte	.LASF25
 1698 0448 01       		.byte	0x1
 1699 0449 FA02     		.2byte	0x2fa
 1700 044b 6B000000 		.4byte	0x6b
 1701 044f CA030000 		.4byte	.LLST27
 1702 0453 10       		.uleb128 0x10
 1703 0454 D3000000 		.4byte	.LASF39
 1704 0458 01       		.byte	0x1
 1705 0459 FB02     		.2byte	0x2fb
 1706 045b 6B000000 		.4byte	0x6b
 1707 045f FF030000 		.4byte	.LLST28
 1708 0463 10       		.uleb128 0x10
 1709 0464 DC000000 		.4byte	.LASF40
 1710 0468 01       		.byte	0x1
 1711 0469 FC02     		.2byte	0x2fc
 1712 046b 6B000000 		.4byte	0x6b
 1713 046f 1D040000 		.4byte	.LLST29
 1714 0473 00       		.byte	0
 1715 0474 0D       		.uleb128 0xd
 1716 0475 6D060000 		.4byte	.LASF44
 1717 0479 01       		.byte	0x1
 1718 047a 2803     		.2byte	0x328
 1719 047c 00000000 		.4byte	.LFB10
 1720 0480 3C000000 		.4byte	.LFE10-.LFB10
 1721 0484 01       		.uleb128 0x1
 1722 0485 9C       		.byte	0x9c
 1723 0486 D9040000 		.4byte	0x4d9
 1724 048a 11       		.uleb128 0x11
 1725 048b 27040000 		.4byte	.LASF23
 1726 048f 01       		.byte	0x1
 1727 0490 2803     		.2byte	0x328
 1728 0492 6B000000 		.4byte	0x6b
 1729 0496 30040000 		.4byte	.LLST30
 1730 049a 0F       		.uleb128 0xf
 1731 049b 706F7300 		.ascii	"pos\000"
 1732 049f 01       		.byte	0x1
 1733 04a0 2B03     		.2byte	0x32b
 1734 04a2 6B000000 		.4byte	0x6b
 1735 04a6 01       		.uleb128 0x1
 1736 04a7 50       		.byte	0x50
ARM GAS  C:\Users\aryan\AppData\Local\Temp\ccEOeQjh.s 			page 56


 1737 04a8 10       		.uleb128 0x10
 1738 04a9 5A030000 		.4byte	.LASF25
 1739 04ad 01       		.byte	0x1
 1740 04ae 2C03     		.2byte	0x32c
 1741 04b0 6B000000 		.4byte	0x6b
 1742 04b4 51040000 		.4byte	.LLST31
 1743 04b8 10       		.uleb128 0x10
 1744 04b9 D3000000 		.4byte	.LASF39
 1745 04bd 01       		.byte	0x1
 1746 04be 2D03     		.2byte	0x32d
 1747 04c0 6B000000 		.4byte	0x6b
 1748 04c4 86040000 		.4byte	.LLST32
 1749 04c8 10       		.uleb128 0x10
 1750 04c9 DC000000 		.4byte	.LASF40
 1751 04cd 01       		.byte	0x1
 1752 04ce 2E03     		.2byte	0x32e
 1753 04d0 6B000000 		.4byte	0x6b
 1754 04d4 A4040000 		.4byte	.LLST33
 1755 04d8 00       		.byte	0
 1756 04d9 12       		.uleb128 0x12
 1757 04da 7F030000 		.4byte	.LASF45
 1758 04de 01       		.byte	0x1
 1759 04df 5A03     		.2byte	0x35a
 1760 04e1 6B000000 		.4byte	0x6b
 1761 04e5 00000000 		.4byte	.LFB11
 1762 04e9 30000000 		.4byte	.LFE11-.LFB11
 1763 04ed 01       		.uleb128 0x1
 1764 04ee 9C       		.byte	0x9c
 1765 04ef 5E050000 		.4byte	0x55e
 1766 04f3 11       		.uleb128 0x11
 1767 04f4 97050000 		.4byte	.LASF46
 1768 04f8 01       		.byte	0x1
 1769 04f9 5A03     		.2byte	0x35a
 1770 04fb 6B000000 		.4byte	0x6b
 1771 04ff B7040000 		.4byte	.LLST34
 1772 0503 14       		.uleb128 0x14
 1773 0504 2B000000 		.4byte	.LASF47
 1774 0508 01       		.byte	0x1
 1775 0509 5A03     		.2byte	0x35a
 1776 050b 6B000000 		.4byte	0x6b
 1777 050f 01       		.uleb128 0x1
 1778 0510 51       		.byte	0x51
 1779 0511 14       		.uleb128 0x14
 1780 0512 64000000 		.4byte	.LASF34
 1781 0516 01       		.byte	0x1
 1782 0517 5A03     		.2byte	0x35a
 1783 0519 77000000 		.4byte	0x77
 1784 051d 01       		.uleb128 0x1
 1785 051e 52       		.byte	0x52
 1786 051f 0E       		.uleb128 0xe
 1787 0520 6900     		.ascii	"i\000"
 1788 0522 01       		.byte	0x1
 1789 0523 5E03     		.2byte	0x35e
 1790 0525 6B000000 		.4byte	0x6b
 1791 0529 D8040000 		.4byte	.LLST35
 1792 052d 10       		.uleb128 0x10
 1793 052e 9D010000 		.4byte	.LASF48
ARM GAS  C:\Users\aryan\AppData\Local\Temp\ccEOeQjh.s 			page 57


 1794 0532 01       		.byte	0x1
 1795 0533 6803     		.2byte	0x368
 1796 0535 6B000000 		.4byte	0x6b
 1797 0539 02050000 		.4byte	.LLST36
 1798 053d 10       		.uleb128 0x10
 1799 053e ED010000 		.4byte	.LASF49
 1800 0542 01       		.byte	0x1
 1801 0543 6903     		.2byte	0x369
 1802 0545 77000000 		.4byte	0x77
 1803 0549 22050000 		.4byte	.LLST37
 1804 054d 10       		.uleb128 0x10
 1805 054e DF010000 		.4byte	.LASF50
 1806 0552 01       		.byte	0x1
 1807 0553 6A03     		.2byte	0x36a
 1808 0555 5E050000 		.4byte	0x55e
 1809 0559 4C050000 		.4byte	.LLST38
 1810 055d 00       		.byte	0
 1811 055e 15       		.uleb128 0x15
 1812 055f 04       		.byte	0x4
 1813 0560 77000000 		.4byte	0x77
 1814 0564 12       		.uleb128 0x12
 1815 0565 7A020000 		.4byte	.LASF51
 1816 0569 01       		.byte	0x1
 1817 056a F603     		.2byte	0x3f6
 1818 056c 6B000000 		.4byte	0x6b
 1819 0570 00000000 		.4byte	.LFB12
 1820 0574 B8000000 		.4byte	.LFE12-.LFB12
 1821 0578 01       		.uleb128 0x1
 1822 0579 9C       		.byte	0x9c
 1823 057a 3F060000 		.4byte	0x63f
 1824 057e 11       		.uleb128 0x11
 1825 057f 9D010000 		.4byte	.LASF48
 1826 0583 01       		.byte	0x1
 1827 0584 F603     		.2byte	0x3f6
 1828 0586 6B000000 		.4byte	0x6b
 1829 058a 5F050000 		.4byte	.LLST39
 1830 058e 11       		.uleb128 0x11
 1831 058f 97050000 		.4byte	.LASF46
 1832 0593 01       		.byte	0x1
 1833 0594 F603     		.2byte	0x3f6
 1834 0596 6B000000 		.4byte	0x6b
 1835 059a 80050000 		.4byte	.LLST40
 1836 059e 11       		.uleb128 0x11
 1837 059f 2B000000 		.4byte	.LASF47
 1838 05a3 01       		.byte	0x1
 1839 05a4 F703     		.2byte	0x3f7
 1840 05a6 6B000000 		.4byte	0x6b
 1841 05aa A1050000 		.4byte	.LLST41
 1842 05ae 14       		.uleb128 0x14
 1843 05af 10050000 		.4byte	.LASF52
 1844 05b3 01       		.byte	0x1
 1845 05b4 F703     		.2byte	0x3f7
 1846 05b6 77000000 		.4byte	0x77
 1847 05ba 01       		.uleb128 0x1
 1848 05bb 53       		.byte	0x53
 1849 05bc 11       		.uleb128 0x11
 1850 05bd 0E040000 		.4byte	.LASF30
ARM GAS  C:\Users\aryan\AppData\Local\Temp\ccEOeQjh.s 			page 58


 1851 05c1 01       		.byte	0x1
 1852 05c2 F703     		.2byte	0x3f7
 1853 05c4 77000000 		.4byte	0x77
 1854 05c8 C2050000 		.4byte	.LLST42
 1855 05cc 10       		.uleb128 0x10
 1856 05cd 9A000000 		.4byte	.LASF53
 1857 05d1 01       		.byte	0x1
 1858 05d2 FB03     		.2byte	0x3fb
 1859 05d4 6B000000 		.4byte	0x6b
 1860 05d8 E2050000 		.4byte	.LLST43
 1861 05dc 10       		.uleb128 0x10
 1862 05dd BB010000 		.4byte	.LASF54
 1863 05e1 01       		.byte	0x1
 1864 05e2 FC03     		.2byte	0x3fc
 1865 05e4 6B000000 		.4byte	0x6b
 1866 05e8 23060000 		.4byte	.LLST44
 1867 05ec 13       		.uleb128 0x13
 1868 05ed 4A020000 		.4byte	.LASF55
 1869 05f1 01       		.byte	0x1
 1870 05f2 0404     		.2byte	0x404
 1871 05f4 3F060000 		.4byte	0x63f
 1872 05f8 05       		.uleb128 0x5
 1873 05f9 03       		.byte	0x3
 1874 05fa 04000000 		.4byte	CapSense_CSD_centroid.5259
 1875 05fe 10       		.uleb128 0x10
 1876 05ff 15020000 		.4byte	.LASF56
 1877 0603 01       		.byte	0x1
 1878 0604 0604     		.2byte	0x406
 1879 0606 6B000000 		.4byte	0x6b
 1880 060a 4F060000 		.4byte	.LLST45
 1881 060e 10       		.uleb128 0x10
 1882 060f 22010000 		.4byte	.LASF57
 1883 0613 01       		.byte	0x1
 1884 0614 0704     		.2byte	0x407
 1885 0616 83000000 		.4byte	0x83
 1886 061a 98060000 		.4byte	.LLST46
 1887 061e 10       		.uleb128 0x10
 1888 061f 2C010000 		.4byte	.LASF58
 1889 0623 01       		.byte	0x1
 1890 0624 0804     		.2byte	0x408
 1891 0626 9B000000 		.4byte	0x9b
 1892 062a E6060000 		.4byte	.LLST47
 1893 062e 10       		.uleb128 0x10
 1894 062f DF010000 		.4byte	.LASF50
 1895 0633 01       		.byte	0x1
 1896 0634 0904     		.2byte	0x409
 1897 0636 5E050000 		.4byte	0x55e
 1898 063a 50070000 		.4byte	.LLST48
 1899 063e 00       		.byte	0
 1900 063f 16       		.uleb128 0x16
 1901 0640 77000000 		.4byte	0x77
 1902 0644 4F060000 		.4byte	0x64f
 1903 0648 17       		.uleb128 0x17
 1904 0649 C3000000 		.4byte	0xc3
 1905 064d 02       		.byte	0x2
 1906 064e 00       		.byte	0
 1907 064f 12       		.uleb128 0x12
ARM GAS  C:\Users\aryan\AppData\Local\Temp\ccEOeQjh.s 			page 59


 1908 0650 31000000 		.4byte	.LASF59
 1909 0654 01       		.byte	0x1
 1910 0655 C304     		.2byte	0x4c3
 1911 0657 77000000 		.4byte	0x77
 1912 065b 00000000 		.4byte	.LFB13
 1913 065f 48000000 		.4byte	.LFE13-.LFB13
 1914 0663 01       		.uleb128 0x1
 1915 0664 9C       		.byte	0x9c
 1916 0665 0A070000 		.4byte	0x70a
 1917 0669 11       		.uleb128 0x11
 1918 066a 27040000 		.4byte	.LASF23
 1919 066e 01       		.byte	0x1
 1920 066f C304     		.2byte	0x4c3
 1921 0671 6B000000 		.4byte	0x6b
 1922 0675 79070000 		.4byte	.LLST49
 1923 0679 10       		.uleb128 0x10
 1924 067a 9D010000 		.4byte	.LASF48
 1925 067e 01       		.byte	0x1
 1926 067f D604     		.2byte	0x4d6
 1927 0681 6B000000 		.4byte	0x6b
 1928 0685 9A070000 		.4byte	.LLST50
 1929 0689 10       		.uleb128 0x10
 1930 068a 15020000 		.4byte	.LASF56
 1931 068e 01       		.byte	0x1
 1932 068f D704     		.2byte	0x4d7
 1933 0691 77000000 		.4byte	0x77
 1934 0695 B8070000 		.4byte	.LLST51
 1935 0699 10       		.uleb128 0x10
 1936 069a 97050000 		.4byte	.LASF46
 1937 069e 01       		.byte	0x1
 1938 069f D804     		.2byte	0x4d8
 1939 06a1 6B000000 		.4byte	0x6b
 1940 06a5 D6070000 		.4byte	.LLST52
 1941 06a9 10       		.uleb128 0x10
 1942 06aa 2B000000 		.4byte	.LASF47
 1943 06ae 01       		.byte	0x1
 1944 06af D904     		.2byte	0x4d9
 1945 06b1 6B000000 		.4byte	0x6b
 1946 06b5 E9070000 		.4byte	.LLST53
 1947 06b9 09       		.uleb128 0x9
 1948 06ba 1E000000 		.4byte	.LVL149
 1949 06be D9040000 		.4byte	0x4d9
 1950 06c2 E3060000 		.4byte	0x6e3
 1951 06c6 0A       		.uleb128 0xa
 1952 06c7 01       		.uleb128 0x1
 1953 06c8 50       		.byte	0x50
 1954 06c9 02       		.uleb128 0x2
 1955 06ca 75       		.byte	0x75
 1956 06cb 00       		.sleb128 0
 1957 06cc 0A       		.uleb128 0xa
 1958 06cd 01       		.uleb128 0x1
 1959 06ce 51       		.byte	0x51
 1960 06cf 02       		.uleb128 0x2
 1961 06d0 76       		.byte	0x76
 1962 06d1 00       		.sleb128 0
 1963 06d2 0A       		.uleb128 0xa
 1964 06d3 01       		.uleb128 0x1
ARM GAS  C:\Users\aryan\AppData\Local\Temp\ccEOeQjh.s 			page 60


 1965 06d4 52       		.byte	0x52
 1966 06d5 0C       		.uleb128 0xc
 1967 06d6 74       		.byte	0x74
 1968 06d7 00       		.sleb128 0
 1969 06d8 31       		.byte	0x31
 1970 06d9 24       		.byte	0x24
 1971 06da 03       		.byte	0x3
 1972 06db 0C000000 		.4byte	.LANCHOR0+12
 1973 06df 22       		.byte	0x22
 1974 06e0 94       		.byte	0x94
 1975 06e1 02       		.byte	0x2
 1976 06e2 00       		.byte	0
 1977 06e3 0C       		.uleb128 0xc
 1978 06e4 38000000 		.4byte	.LVL150
 1979 06e8 64050000 		.4byte	0x564
 1980 06ec 0A       		.uleb128 0xa
 1981 06ed 01       		.uleb128 0x1
 1982 06ee 51       		.byte	0x51
 1983 06ef 02       		.uleb128 0x2
 1984 06f0 75       		.byte	0x75
 1985 06f1 00       		.sleb128 0
 1986 06f2 0A       		.uleb128 0xa
 1987 06f3 01       		.uleb128 0x1
 1988 06f4 52       		.byte	0x52
 1989 06f5 02       		.uleb128 0x2
 1990 06f6 76       		.byte	0x76
 1991 06f7 00       		.sleb128 0
 1992 06f8 0A       		.uleb128 0xa
 1993 06f9 01       		.uleb128 0x1
 1994 06fa 53       		.byte	0x53
 1995 06fb 03       		.uleb128 0x3
 1996 06fc 0A       		.byte	0xa
 1997 06fd 0019     		.2byte	0x1900
 1998 06ff 0A       		.uleb128 0xa
 1999 0700 02       		.uleb128 0x2
 2000 0701 7D       		.byte	0x7d
 2001 0702 00       		.sleb128 0
 2002 0703 04       		.uleb128 0x4
 2003 0704 74       		.byte	0x74
 2004 0705 04       		.sleb128 4
 2005 0706 94       		.byte	0x94
 2006 0707 02       		.byte	0x2
 2007 0708 00       		.byte	0
 2008 0709 00       		.byte	0
 2009 070a 16       		.uleb128 0x16
 2010 070b 77000000 		.4byte	0x77
 2011 070f 1A070000 		.4byte	0x71a
 2012 0713 17       		.uleb128 0x17
 2013 0714 C3000000 		.4byte	0xc3
 2014 0718 06       		.byte	0x6
 2015 0719 00       		.byte	0
 2016 071a 18       		.uleb128 0x18
 2017 071b D7040000 		.4byte	.LASF60
 2018 071f 03       		.byte	0x3
 2019 0720 BF02     		.2byte	0x2bf
 2020 0722 0A070000 		.4byte	0x70a
 2021 0726 16       		.uleb128 0x16
ARM GAS  C:\Users\aryan\AppData\Local\Temp\ccEOeQjh.s 			page 61


 2022 0727 6B000000 		.4byte	0x6b
 2023 072b 36070000 		.4byte	0x736
 2024 072f 17       		.uleb128 0x17
 2025 0730 C3000000 		.4byte	0xc3
 2026 0734 00       		.byte	0
 2027 0735 00       		.byte	0
 2028 0736 18       		.uleb128 0x18
 2029 0737 61030000 		.4byte	.LASF61
 2030 073b 04       		.byte	0x4
 2031 073c 0501     		.2byte	0x105
 2032 073e 26070000 		.4byte	0x726
 2033 0742 16       		.uleb128 0x16
 2034 0743 52070000 		.4byte	0x752
 2035 0747 52070000 		.4byte	0x752
 2036 074b 17       		.uleb128 0x17
 2037 074c C3000000 		.4byte	0xc3
 2038 0750 06       		.byte	0x6
 2039 0751 00       		.byte	0
 2040 0752 19       		.uleb128 0x19
 2041 0753 6B000000 		.4byte	0x6b
 2042 0757 18       		.uleb128 0x18
 2043 0758 38010000 		.4byte	.LASF62
 2044 075c 04       		.byte	0x4
 2045 075d 0601     		.2byte	0x106
 2046 075f 63070000 		.4byte	0x763
 2047 0763 19       		.uleb128 0x19
 2048 0764 42070000 		.4byte	0x742
 2049 0768 1A       		.uleb128 0x1a
 2050 0769 C3010000 		.4byte	.LASF63
 2051 076d 01       		.byte	0x1
 2052 076e 29       		.byte	0x29
 2053 076f 0A070000 		.4byte	0x70a
 2054 0773 05       		.uleb128 0x5
 2055 0774 03       		.byte	0x3
 2056 0775 00000000 		.4byte	CapSense_CSD_sensorBaseline
 2057 0779 16       		.uleb128 0x16
 2058 077a 6B000000 		.4byte	0x6b
 2059 077e 89070000 		.4byte	0x789
 2060 0782 17       		.uleb128 0x17
 2061 0783 C3000000 		.4byte	0xc3
 2062 0787 06       		.byte	0x6
 2063 0788 00       		.byte	0
 2064 0789 1A       		.uleb128 0x1a
 2065 078a 46060000 		.4byte	.LASF64
 2066 078e 01       		.byte	0x1
 2067 078f 2A       		.byte	0x2a
 2068 0790 79070000 		.4byte	0x779
 2069 0794 05       		.uleb128 0x5
 2070 0795 03       		.byte	0x3
 2071 0796 00000000 		.4byte	CapSense_CSD_sensorBaselineLow
 2072 079a 1A       		.uleb128 0x1a
 2073 079b 30020000 		.4byte	.LASF65
 2074 079f 01       		.byte	0x1
 2075 07a0 2B       		.byte	0x2b
 2076 07a1 0A070000 		.4byte	0x70a
 2077 07a5 05       		.uleb128 0x5
 2078 07a6 03       		.byte	0x3
ARM GAS  C:\Users\aryan\AppData\Local\Temp\ccEOeQjh.s 			page 62


 2079 07a7 00000000 		.4byte	CapSense_CSD_sensorSignal
 2080 07ab 1A       		.uleb128 0x1a
 2081 07ac 88060000 		.4byte	.LASF66
 2082 07b0 01       		.byte	0x1
 2083 07b1 2C       		.byte	0x2c
 2084 07b2 26070000 		.4byte	0x726
 2085 07b6 05       		.uleb128 0x5
 2086 07b7 03       		.byte	0x3
 2087 07b8 00000000 		.4byte	CapSense_CSD_sensorOnMask
 2088 07bc 1A       		.uleb128 0x1a
 2089 07bd 9E030000 		.4byte	.LASF67
 2090 07c1 01       		.byte	0x1
 2091 07c2 2E       		.byte	0x2e
 2092 07c3 79070000 		.4byte	0x779
 2093 07c7 05       		.uleb128 0x5
 2094 07c8 03       		.byte	0x3
 2095 07c9 00000000 		.4byte	CapSense_CSD_lowBaselineResetCnt
 2096 07cd 16       		.uleb128 0x16
 2097 07ce DD070000 		.4byte	0x7dd
 2098 07d2 DD070000 		.4byte	0x7dd
 2099 07d6 17       		.uleb128 0x17
 2100 07d7 C3000000 		.4byte	0xc3
 2101 07db 02       		.byte	0x2
 2102 07dc 00       		.byte	0
 2103 07dd 19       		.uleb128 0x19
 2104 07de 77000000 		.4byte	0x77
 2105 07e2 1A       		.uleb128 0x1a
 2106 07e3 E3030000 		.4byte	.LASF68
 2107 07e7 01       		.byte	0x1
 2108 07e8 30       		.byte	0x30
 2109 07e9 F3070000 		.4byte	0x7f3
 2110 07ed 05       		.uleb128 0x5
 2111 07ee 03       		.byte	0x3
 2112 07ef 00000000 		.4byte	CapSense_CSD_fingerThreshold
 2113 07f3 19       		.uleb128 0x19
 2114 07f4 CD070000 		.4byte	0x7cd
 2115 07f8 1A       		.uleb128 0x1a
 2116 07f9 38050000 		.4byte	.LASF69
 2117 07fd 01       		.byte	0x1
 2118 07fe 34       		.byte	0x34
 2119 07ff 09080000 		.4byte	0x809
 2120 0803 05       		.uleb128 0x5
 2121 0804 03       		.byte	0x3
 2122 0805 00000000 		.4byte	CapSense_CSD_noiseThreshold
 2123 0809 19       		.uleb128 0x19
 2124 080a CD070000 		.4byte	0x7cd
 2125 080e 1A       		.uleb128 0x1a
 2126 080f B8050000 		.4byte	.LASF70
 2127 0813 01       		.byte	0x1
 2128 0814 38       		.byte	0x38
 2129 0815 1F080000 		.4byte	0x81f
 2130 0819 05       		.uleb128 0x5
 2131 081a 03       		.byte	0x3
 2132 081b 00000000 		.4byte	CapSense_CSD_hysteresis
 2133 081f 19       		.uleb128 0x19
 2134 0820 CD070000 		.4byte	0x7cd
 2135 0824 16       		.uleb128 0x16
ARM GAS  C:\Users\aryan\AppData\Local\Temp\ccEOeQjh.s 			page 63


 2136 0825 52070000 		.4byte	0x752
 2137 0829 34080000 		.4byte	0x834
 2138 082d 17       		.uleb128 0x17
 2139 082e C3000000 		.4byte	0xc3
 2140 0832 02       		.byte	0x2
 2141 0833 00       		.byte	0
 2142 0834 1A       		.uleb128 0x1a
 2143 0835 F2010000 		.4byte	.LASF71
 2144 0839 01       		.byte	0x1
 2145 083a 3C       		.byte	0x3c
 2146 083b 45080000 		.4byte	0x845
 2147 083f 05       		.uleb128 0x5
 2148 0840 03       		.byte	0x3
 2149 0841 00000000 		.4byte	CapSense_CSD_debounce
 2150 0845 19       		.uleb128 0x19
 2151 0846 24080000 		.4byte	0x824
 2152 084a 16       		.uleb128 0x16
 2153 084b 6B000000 		.4byte	0x6b
 2154 084f 5A080000 		.4byte	0x85a
 2155 0853 17       		.uleb128 0x17
 2156 0854 C3000000 		.4byte	0xc3
 2157 0858 02       		.byte	0x2
 2158 0859 00       		.byte	0
 2159 085a 1A       		.uleb128 0x1a
 2160 085b 29060000 		.4byte	.LASF72
 2161 085f 01       		.byte	0x1
 2162 0860 40       		.byte	0x40
 2163 0861 4A080000 		.4byte	0x84a
 2164 0865 05       		.uleb128 0x5
 2165 0866 03       		.byte	0x3
 2166 0867 00000000 		.4byte	CapSense_CSD_debounceCounter
 2167 086b 1A       		.uleb128 0x1a
 2168 086c 40030000 		.4byte	.LASF73
 2169 0870 01       		.byte	0x1
 2170 0871 44       		.byte	0x44
 2171 0872 7C080000 		.4byte	0x87c
 2172 0876 05       		.uleb128 0x5
 2173 0877 03       		.byte	0x3
 2174 0878 00000000 		.4byte	CapSense_CSD_rawDataIndex
 2175 087c 19       		.uleb128 0x19
 2176 087d 24080000 		.4byte	0x824
 2177 0881 1A       		.uleb128 0x1a
 2178 0882 1B050000 		.4byte	.LASF74
 2179 0886 01       		.byte	0x1
 2180 0887 4B       		.byte	0x4b
 2181 0888 92080000 		.4byte	0x892
 2182 088c 05       		.uleb128 0x5
 2183 088d 03       		.byte	0x3
 2184 088e 00000000 		.4byte	CapSense_CSD_numberOfSensors
 2185 0892 19       		.uleb128 0x19
 2186 0893 24080000 		.4byte	0x824
 2187 0897 16       		.uleb128 0x16
 2188 0898 DD070000 		.4byte	0x7dd
 2189 089c A7080000 		.4byte	0x8a7
 2190 08a0 17       		.uleb128 0x17
 2191 08a1 C3000000 		.4byte	0xc3
 2192 08a5 00       		.byte	0
ARM GAS  C:\Users\aryan\AppData\Local\Temp\ccEOeQjh.s 			page 64


 2193 08a6 00       		.byte	0
 2194 08a7 1A       		.uleb128 0x1a
 2195 08a8 9E050000 		.4byte	.LASF75
 2196 08ac 01       		.byte	0x1
 2197 08ad 52       		.byte	0x52
 2198 08ae B8080000 		.4byte	0x8b8
 2199 08b2 05       		.uleb128 0x5
 2200 08b3 03       		.byte	0x3
 2201 08b4 00000000 		.4byte	CapSense_CSD_centroidMult
 2202 08b8 19       		.uleb128 0x19
 2203 08b9 97080000 		.4byte	0x897
 2204 08bd 1B       		.uleb128 0x1b
 2205 08be 99020000 		.4byte	.LASF76
 2206 08c2 99020000 		.4byte	.LASF76
 2207 08c6 03       		.byte	0x3
 2208 08c7 9A       		.byte	0x9a
 2209 08c8 1B       		.uleb128 0x1b
 2210 08c9 C3040000 		.4byte	.LASF77
 2211 08cd C3040000 		.4byte	.LASF77
 2212 08d1 03       		.byte	0x3
 2213 08d2 99       		.byte	0x99
 2214 08d3 1B       		.uleb128 0x1b
 2215 08d4 66010000 		.4byte	.LASF78
 2216 08d8 66010000 		.4byte	.LASF78
 2217 08dc 03       		.byte	0x3
 2218 08dd 9B       		.byte	0x9b
 2219 08de 00       		.byte	0
 2220              		.section	.debug_abbrev,"",%progbits
 2221              	.Ldebug_abbrev0:
 2222 0000 01       		.uleb128 0x1
 2223 0001 11       		.uleb128 0x11
 2224 0002 01       		.byte	0x1
 2225 0003 25       		.uleb128 0x25
 2226 0004 0E       		.uleb128 0xe
 2227 0005 13       		.uleb128 0x13
 2228 0006 0B       		.uleb128 0xb
 2229 0007 03       		.uleb128 0x3
 2230 0008 0E       		.uleb128 0xe
 2231 0009 1B       		.uleb128 0x1b
 2232 000a 0E       		.uleb128 0xe
 2233 000b 55       		.uleb128 0x55
 2234 000c 17       		.uleb128 0x17
 2235 000d 11       		.uleb128 0x11
 2236 000e 01       		.uleb128 0x1
 2237 000f 10       		.uleb128 0x10
 2238 0010 17       		.uleb128 0x17
 2239 0011 00       		.byte	0
 2240 0012 00       		.byte	0
 2241 0013 02       		.uleb128 0x2
 2242 0014 24       		.uleb128 0x24
 2243 0015 00       		.byte	0
 2244 0016 0B       		.uleb128 0xb
 2245 0017 0B       		.uleb128 0xb
 2246 0018 3E       		.uleb128 0x3e
 2247 0019 0B       		.uleb128 0xb
 2248 001a 03       		.uleb128 0x3
 2249 001b 0E       		.uleb128 0xe
ARM GAS  C:\Users\aryan\AppData\Local\Temp\ccEOeQjh.s 			page 65


 2250 001c 00       		.byte	0
 2251 001d 00       		.byte	0
 2252 001e 03       		.uleb128 0x3
 2253 001f 24       		.uleb128 0x24
 2254 0020 00       		.byte	0
 2255 0021 0B       		.uleb128 0xb
 2256 0022 0B       		.uleb128 0xb
 2257 0023 3E       		.uleb128 0x3e
 2258 0024 0B       		.uleb128 0xb
 2259 0025 03       		.uleb128 0x3
 2260 0026 08       		.uleb128 0x8
 2261 0027 00       		.byte	0
 2262 0028 00       		.byte	0
 2263 0029 04       		.uleb128 0x4
 2264 002a 16       		.uleb128 0x16
 2265 002b 00       		.byte	0
 2266 002c 03       		.uleb128 0x3
 2267 002d 0E       		.uleb128 0xe
 2268 002e 3A       		.uleb128 0x3a
 2269 002f 0B       		.uleb128 0xb
 2270 0030 3B       		.uleb128 0x3b
 2271 0031 05       		.uleb128 0x5
 2272 0032 49       		.uleb128 0x49
 2273 0033 13       		.uleb128 0x13
 2274 0034 00       		.byte	0
 2275 0035 00       		.byte	0
 2276 0036 05       		.uleb128 0x5
 2277 0037 2E       		.uleb128 0x2e
 2278 0038 01       		.byte	0x1
 2279 0039 3F       		.uleb128 0x3f
 2280 003a 19       		.uleb128 0x19
 2281 003b 03       		.uleb128 0x3
 2282 003c 0E       		.uleb128 0xe
 2283 003d 3A       		.uleb128 0x3a
 2284 003e 0B       		.uleb128 0xb
 2285 003f 3B       		.uleb128 0x3b
 2286 0040 0B       		.uleb128 0xb
 2287 0041 27       		.uleb128 0x27
 2288 0042 19       		.uleb128 0x19
 2289 0043 11       		.uleb128 0x11
 2290 0044 01       		.uleb128 0x1
 2291 0045 12       		.uleb128 0x12
 2292 0046 06       		.uleb128 0x6
 2293 0047 40       		.uleb128 0x40
 2294 0048 18       		.uleb128 0x18
 2295 0049 9742     		.uleb128 0x2117
 2296 004b 19       		.uleb128 0x19
 2297 004c 01       		.uleb128 0x1
 2298 004d 13       		.uleb128 0x13
 2299 004e 00       		.byte	0
 2300 004f 00       		.byte	0
 2301 0050 06       		.uleb128 0x6
 2302 0051 05       		.uleb128 0x5
 2303 0052 00       		.byte	0
 2304 0053 03       		.uleb128 0x3
 2305 0054 0E       		.uleb128 0xe
 2306 0055 3A       		.uleb128 0x3a
ARM GAS  C:\Users\aryan\AppData\Local\Temp\ccEOeQjh.s 			page 66


 2307 0056 0B       		.uleb128 0xb
 2308 0057 3B       		.uleb128 0x3b
 2309 0058 0B       		.uleb128 0xb
 2310 0059 49       		.uleb128 0x49
 2311 005a 13       		.uleb128 0x13
 2312 005b 02       		.uleb128 0x2
 2313 005c 18       		.uleb128 0x18
 2314 005d 00       		.byte	0
 2315 005e 00       		.byte	0
 2316 005f 07       		.uleb128 0x7
 2317 0060 34       		.uleb128 0x34
 2318 0061 00       		.byte	0
 2319 0062 03       		.uleb128 0x3
 2320 0063 0E       		.uleb128 0xe
 2321 0064 3A       		.uleb128 0x3a
 2322 0065 0B       		.uleb128 0xb
 2323 0066 3B       		.uleb128 0x3b
 2324 0067 0B       		.uleb128 0xb
 2325 0068 49       		.uleb128 0x49
 2326 0069 13       		.uleb128 0x13
 2327 006a 02       		.uleb128 0x2
 2328 006b 17       		.uleb128 0x17
 2329 006c 00       		.byte	0
 2330 006d 00       		.byte	0
 2331 006e 08       		.uleb128 0x8
 2332 006f 05       		.uleb128 0x5
 2333 0070 00       		.byte	0
 2334 0071 03       		.uleb128 0x3
 2335 0072 0E       		.uleb128 0xe
 2336 0073 3A       		.uleb128 0x3a
 2337 0074 0B       		.uleb128 0xb
 2338 0075 3B       		.uleb128 0x3b
 2339 0076 0B       		.uleb128 0xb
 2340 0077 49       		.uleb128 0x49
 2341 0078 13       		.uleb128 0x13
 2342 0079 02       		.uleb128 0x2
 2343 007a 17       		.uleb128 0x17
 2344 007b 00       		.byte	0
 2345 007c 00       		.byte	0
 2346 007d 09       		.uleb128 0x9
 2347 007e 898201   		.uleb128 0x4109
 2348 0081 01       		.byte	0x1
 2349 0082 11       		.uleb128 0x11
 2350 0083 01       		.uleb128 0x1
 2351 0084 31       		.uleb128 0x31
 2352 0085 13       		.uleb128 0x13
 2353 0086 01       		.uleb128 0x1
 2354 0087 13       		.uleb128 0x13
 2355 0088 00       		.byte	0
 2356 0089 00       		.byte	0
 2357 008a 0A       		.uleb128 0xa
 2358 008b 8A8201   		.uleb128 0x410a
 2359 008e 00       		.byte	0
 2360 008f 02       		.uleb128 0x2
 2361 0090 18       		.uleb128 0x18
 2362 0091 9142     		.uleb128 0x2111
 2363 0093 18       		.uleb128 0x18
ARM GAS  C:\Users\aryan\AppData\Local\Temp\ccEOeQjh.s 			page 67


 2364 0094 00       		.byte	0
 2365 0095 00       		.byte	0
 2366 0096 0B       		.uleb128 0xb
 2367 0097 898201   		.uleb128 0x4109
 2368 009a 00       		.byte	0
 2369 009b 11       		.uleb128 0x11
 2370 009c 01       		.uleb128 0x1
 2371 009d 31       		.uleb128 0x31
 2372 009e 13       		.uleb128 0x13
 2373 009f 00       		.byte	0
 2374 00a0 00       		.byte	0
 2375 00a1 0C       		.uleb128 0xc
 2376 00a2 898201   		.uleb128 0x4109
 2377 00a5 01       		.byte	0x1
 2378 00a6 11       		.uleb128 0x11
 2379 00a7 01       		.uleb128 0x1
 2380 00a8 31       		.uleb128 0x31
 2381 00a9 13       		.uleb128 0x13
 2382 00aa 00       		.byte	0
 2383 00ab 00       		.byte	0
 2384 00ac 0D       		.uleb128 0xd
 2385 00ad 2E       		.uleb128 0x2e
 2386 00ae 01       		.byte	0x1
 2387 00af 3F       		.uleb128 0x3f
 2388 00b0 19       		.uleb128 0x19
 2389 00b1 03       		.uleb128 0x3
 2390 00b2 0E       		.uleb128 0xe
 2391 00b3 3A       		.uleb128 0x3a
 2392 00b4 0B       		.uleb128 0xb
 2393 00b5 3B       		.uleb128 0x3b
 2394 00b6 05       		.uleb128 0x5
 2395 00b7 27       		.uleb128 0x27
 2396 00b8 19       		.uleb128 0x19
 2397 00b9 11       		.uleb128 0x11
 2398 00ba 01       		.uleb128 0x1
 2399 00bb 12       		.uleb128 0x12
 2400 00bc 06       		.uleb128 0x6
 2401 00bd 40       		.uleb128 0x40
 2402 00be 18       		.uleb128 0x18
 2403 00bf 9742     		.uleb128 0x2117
 2404 00c1 19       		.uleb128 0x19
 2405 00c2 01       		.uleb128 0x1
 2406 00c3 13       		.uleb128 0x13
 2407 00c4 00       		.byte	0
 2408 00c5 00       		.byte	0
 2409 00c6 0E       		.uleb128 0xe
 2410 00c7 34       		.uleb128 0x34
 2411 00c8 00       		.byte	0
 2412 00c9 03       		.uleb128 0x3
 2413 00ca 08       		.uleb128 0x8
 2414 00cb 3A       		.uleb128 0x3a
 2415 00cc 0B       		.uleb128 0xb
 2416 00cd 3B       		.uleb128 0x3b
 2417 00ce 05       		.uleb128 0x5
 2418 00cf 49       		.uleb128 0x49
 2419 00d0 13       		.uleb128 0x13
 2420 00d1 02       		.uleb128 0x2
ARM GAS  C:\Users\aryan\AppData\Local\Temp\ccEOeQjh.s 			page 68


 2421 00d2 17       		.uleb128 0x17
 2422 00d3 00       		.byte	0
 2423 00d4 00       		.byte	0
 2424 00d5 0F       		.uleb128 0xf
 2425 00d6 34       		.uleb128 0x34
 2426 00d7 00       		.byte	0
 2427 00d8 03       		.uleb128 0x3
 2428 00d9 08       		.uleb128 0x8
 2429 00da 3A       		.uleb128 0x3a
 2430 00db 0B       		.uleb128 0xb
 2431 00dc 3B       		.uleb128 0x3b
 2432 00dd 05       		.uleb128 0x5
 2433 00de 49       		.uleb128 0x49
 2434 00df 13       		.uleb128 0x13
 2435 00e0 02       		.uleb128 0x2
 2436 00e1 18       		.uleb128 0x18
 2437 00e2 00       		.byte	0
 2438 00e3 00       		.byte	0
 2439 00e4 10       		.uleb128 0x10
 2440 00e5 34       		.uleb128 0x34
 2441 00e6 00       		.byte	0
 2442 00e7 03       		.uleb128 0x3
 2443 00e8 0E       		.uleb128 0xe
 2444 00e9 3A       		.uleb128 0x3a
 2445 00ea 0B       		.uleb128 0xb
 2446 00eb 3B       		.uleb128 0x3b
 2447 00ec 05       		.uleb128 0x5
 2448 00ed 49       		.uleb128 0x49
 2449 00ee 13       		.uleb128 0x13
 2450 00ef 02       		.uleb128 0x2
 2451 00f0 17       		.uleb128 0x17
 2452 00f1 00       		.byte	0
 2453 00f2 00       		.byte	0
 2454 00f3 11       		.uleb128 0x11
 2455 00f4 05       		.uleb128 0x5
 2456 00f5 00       		.byte	0
 2457 00f6 03       		.uleb128 0x3
 2458 00f7 0E       		.uleb128 0xe
 2459 00f8 3A       		.uleb128 0x3a
 2460 00f9 0B       		.uleb128 0xb
 2461 00fa 3B       		.uleb128 0x3b
 2462 00fb 05       		.uleb128 0x5
 2463 00fc 49       		.uleb128 0x49
 2464 00fd 13       		.uleb128 0x13
 2465 00fe 02       		.uleb128 0x2
 2466 00ff 17       		.uleb128 0x17
 2467 0100 00       		.byte	0
 2468 0101 00       		.byte	0
 2469 0102 12       		.uleb128 0x12
 2470 0103 2E       		.uleb128 0x2e
 2471 0104 01       		.byte	0x1
 2472 0105 3F       		.uleb128 0x3f
 2473 0106 19       		.uleb128 0x19
 2474 0107 03       		.uleb128 0x3
 2475 0108 0E       		.uleb128 0xe
 2476 0109 3A       		.uleb128 0x3a
 2477 010a 0B       		.uleb128 0xb
ARM GAS  C:\Users\aryan\AppData\Local\Temp\ccEOeQjh.s 			page 69


 2478 010b 3B       		.uleb128 0x3b
 2479 010c 05       		.uleb128 0x5
 2480 010d 27       		.uleb128 0x27
 2481 010e 19       		.uleb128 0x19
 2482 010f 49       		.uleb128 0x49
 2483 0110 13       		.uleb128 0x13
 2484 0111 11       		.uleb128 0x11
 2485 0112 01       		.uleb128 0x1
 2486 0113 12       		.uleb128 0x12
 2487 0114 06       		.uleb128 0x6
 2488 0115 40       		.uleb128 0x40
 2489 0116 18       		.uleb128 0x18
 2490 0117 9742     		.uleb128 0x2117
 2491 0119 19       		.uleb128 0x19
 2492 011a 01       		.uleb128 0x1
 2493 011b 13       		.uleb128 0x13
 2494 011c 00       		.byte	0
 2495 011d 00       		.byte	0
 2496 011e 13       		.uleb128 0x13
 2497 011f 34       		.uleb128 0x34
 2498 0120 00       		.byte	0
 2499 0121 03       		.uleb128 0x3
 2500 0122 0E       		.uleb128 0xe
 2501 0123 3A       		.uleb128 0x3a
 2502 0124 0B       		.uleb128 0xb
 2503 0125 3B       		.uleb128 0x3b
 2504 0126 05       		.uleb128 0x5
 2505 0127 49       		.uleb128 0x49
 2506 0128 13       		.uleb128 0x13
 2507 0129 02       		.uleb128 0x2
 2508 012a 18       		.uleb128 0x18
 2509 012b 00       		.byte	0
 2510 012c 00       		.byte	0
 2511 012d 14       		.uleb128 0x14
 2512 012e 05       		.uleb128 0x5
 2513 012f 00       		.byte	0
 2514 0130 03       		.uleb128 0x3
 2515 0131 0E       		.uleb128 0xe
 2516 0132 3A       		.uleb128 0x3a
 2517 0133 0B       		.uleb128 0xb
 2518 0134 3B       		.uleb128 0x3b
 2519 0135 05       		.uleb128 0x5
 2520 0136 49       		.uleb128 0x49
 2521 0137 13       		.uleb128 0x13
 2522 0138 02       		.uleb128 0x2
 2523 0139 18       		.uleb128 0x18
 2524 013a 00       		.byte	0
 2525 013b 00       		.byte	0
 2526 013c 15       		.uleb128 0x15
 2527 013d 0F       		.uleb128 0xf
 2528 013e 00       		.byte	0
 2529 013f 0B       		.uleb128 0xb
 2530 0140 0B       		.uleb128 0xb
 2531 0141 49       		.uleb128 0x49
 2532 0142 13       		.uleb128 0x13
 2533 0143 00       		.byte	0
 2534 0144 00       		.byte	0
ARM GAS  C:\Users\aryan\AppData\Local\Temp\ccEOeQjh.s 			page 70


 2535 0145 16       		.uleb128 0x16
 2536 0146 01       		.uleb128 0x1
 2537 0147 01       		.byte	0x1
 2538 0148 49       		.uleb128 0x49
 2539 0149 13       		.uleb128 0x13
 2540 014a 01       		.uleb128 0x1
 2541 014b 13       		.uleb128 0x13
 2542 014c 00       		.byte	0
 2543 014d 00       		.byte	0
 2544 014e 17       		.uleb128 0x17
 2545 014f 21       		.uleb128 0x21
 2546 0150 00       		.byte	0
 2547 0151 49       		.uleb128 0x49
 2548 0152 13       		.uleb128 0x13
 2549 0153 2F       		.uleb128 0x2f
 2550 0154 0B       		.uleb128 0xb
 2551 0155 00       		.byte	0
 2552 0156 00       		.byte	0
 2553 0157 18       		.uleb128 0x18
 2554 0158 34       		.uleb128 0x34
 2555 0159 00       		.byte	0
 2556 015a 03       		.uleb128 0x3
 2557 015b 0E       		.uleb128 0xe
 2558 015c 3A       		.uleb128 0x3a
 2559 015d 0B       		.uleb128 0xb
 2560 015e 3B       		.uleb128 0x3b
 2561 015f 05       		.uleb128 0x5
 2562 0160 49       		.uleb128 0x49
 2563 0161 13       		.uleb128 0x13
 2564 0162 3F       		.uleb128 0x3f
 2565 0163 19       		.uleb128 0x19
 2566 0164 3C       		.uleb128 0x3c
 2567 0165 19       		.uleb128 0x19
 2568 0166 00       		.byte	0
 2569 0167 00       		.byte	0
 2570 0168 19       		.uleb128 0x19
 2571 0169 26       		.uleb128 0x26
 2572 016a 00       		.byte	0
 2573 016b 49       		.uleb128 0x49
 2574 016c 13       		.uleb128 0x13
 2575 016d 00       		.byte	0
 2576 016e 00       		.byte	0
 2577 016f 1A       		.uleb128 0x1a
 2578 0170 34       		.uleb128 0x34
 2579 0171 00       		.byte	0
 2580 0172 03       		.uleb128 0x3
 2581 0173 0E       		.uleb128 0xe
 2582 0174 3A       		.uleb128 0x3a
 2583 0175 0B       		.uleb128 0xb
 2584 0176 3B       		.uleb128 0x3b
 2585 0177 0B       		.uleb128 0xb
 2586 0178 49       		.uleb128 0x49
 2587 0179 13       		.uleb128 0x13
 2588 017a 3F       		.uleb128 0x3f
 2589 017b 19       		.uleb128 0x19
 2590 017c 02       		.uleb128 0x2
 2591 017d 18       		.uleb128 0x18
ARM GAS  C:\Users\aryan\AppData\Local\Temp\ccEOeQjh.s 			page 71


 2592 017e 00       		.byte	0
 2593 017f 00       		.byte	0
 2594 0180 1B       		.uleb128 0x1b
 2595 0181 2E       		.uleb128 0x2e
 2596 0182 00       		.byte	0
 2597 0183 3F       		.uleb128 0x3f
 2598 0184 19       		.uleb128 0x19
 2599 0185 3C       		.uleb128 0x3c
 2600 0186 19       		.uleb128 0x19
 2601 0187 6E       		.uleb128 0x6e
 2602 0188 0E       		.uleb128 0xe
 2603 0189 03       		.uleb128 0x3
 2604 018a 0E       		.uleb128 0xe
 2605 018b 3A       		.uleb128 0x3a
 2606 018c 0B       		.uleb128 0xb
 2607 018d 3B       		.uleb128 0x3b
 2608 018e 0B       		.uleb128 0xb
 2609 018f 00       		.byte	0
 2610 0190 00       		.byte	0
 2611 0191 00       		.byte	0
 2612              		.section	.debug_loc,"",%progbits
 2613              	.Ldebug_loc0:
 2614              	.LLST0:
 2615 0000 04000000 		.4byte	.LVL1
 2616 0004 26000000 		.4byte	.LVL2
 2617 0008 0100     		.2byte	0x1
 2618 000a 53       		.byte	0x53
 2619 000b 26000000 		.4byte	.LVL2
 2620 000f 28000000 		.4byte	.LVL3
 2621 0013 0300     		.2byte	0x3
 2622 0015 72       		.byte	0x72
 2623 0016 01       		.sleb128 1
 2624 0017 9F       		.byte	0x9f
 2625 0018 00000000 		.4byte	0
 2626 001c 00000000 		.4byte	0
 2627              	.LLST1:
 2628 0020 00000000 		.4byte	.LVL4
 2629 0024 07000000 		.4byte	.LVL5-1
 2630 0028 0100     		.2byte	0x1
 2631 002a 50       		.byte	0x50
 2632 002b 07000000 		.4byte	.LVL5-1
 2633 002f 18000000 		.4byte	.LFE1
 2634 0033 0400     		.2byte	0x4
 2635 0035 F3       		.byte	0xf3
 2636 0036 01       		.uleb128 0x1
 2637 0037 50       		.byte	0x50
 2638 0038 9F       		.byte	0x9f
 2639 0039 00000000 		.4byte	0
 2640 003d 00000000 		.4byte	0
 2641              	.LLST2:
 2642 0041 02000000 		.4byte	.LVL8
 2643 0045 06000000 		.4byte	.LVL9
 2644 0049 0200     		.2byte	0x2
 2645 004b 30       		.byte	0x30
 2646 004c 9F       		.byte	0x9f
 2647 004d 06000000 		.4byte	.LVL9
 2648 0051 0E000000 		.4byte	.LVL11
ARM GAS  C:\Users\aryan\AppData\Local\Temp\ccEOeQjh.s 			page 72


 2649 0055 0100     		.2byte	0x1
 2650 0057 54       		.byte	0x54
 2651 0058 10000000 		.4byte	.LVL12
 2652 005c 16000000 		.4byte	.LFE2
 2653 0060 0100     		.2byte	0x1
 2654 0062 54       		.byte	0x54
 2655 0063 00000000 		.4byte	0
 2656 0067 00000000 		.4byte	0
 2657              	.LLST3:
 2658 006b 12000000 		.4byte	.LVL15
 2659 006f 34000000 		.4byte	.LVL19
 2660 0073 0100     		.2byte	0x1
 2661 0075 54       		.byte	0x54
 2662 0076 36000000 		.4byte	.LVL20
 2663 007a 3C000000 		.4byte	.LVL21
 2664 007e 0100     		.2byte	0x1
 2665 0080 54       		.byte	0x54
 2666 0081 00000000 		.4byte	0
 2667 0085 00000000 		.4byte	0
 2668              	.LLST4:
 2669 0089 1C000000 		.4byte	.LVL16
 2670 008d 28000000 		.4byte	.LVL17
 2671 0091 0100     		.2byte	0x1
 2672 0093 53       		.byte	0x53
 2673 0094 28000000 		.4byte	.LVL17
 2674 0098 34000000 		.4byte	.LVL19
 2675 009c 0700     		.2byte	0x7
 2676 009e 31       		.byte	0x31
 2677 009f 74       		.byte	0x74
 2678 00a0 00       		.sleb128 0
 2679 00a1 37       		.byte	0x37
 2680 00a2 1A       		.byte	0x1a
 2681 00a3 24       		.byte	0x24
 2682 00a4 9F       		.byte	0x9f
 2683 00a5 34000000 		.4byte	.LVL19
 2684 00a9 36000000 		.4byte	.LVL20
 2685 00ad 0700     		.2byte	0x7
 2686 00af 31       		.byte	0x31
 2687 00b0 74       		.byte	0x74
 2688 00b1 7F       		.sleb128 -1
 2689 00b2 37       		.byte	0x37
 2690 00b3 1A       		.byte	0x1a
 2691 00b4 24       		.byte	0x24
 2692 00b5 9F       		.byte	0x9f
 2693 00b6 00000000 		.4byte	0
 2694 00ba 00000000 		.4byte	0
 2695              	.LLST5:
 2696 00be 00000000 		.4byte	.LVL22
 2697 00c2 3E000000 		.4byte	.LVL32
 2698 00c6 0100     		.2byte	0x1
 2699 00c8 50       		.byte	0x50
 2700 00c9 3E000000 		.4byte	.LVL32
 2701 00cd 4A000000 		.4byte	.LVL34
 2702 00d1 0400     		.2byte	0x4
 2703 00d3 F3       		.byte	0xf3
 2704 00d4 01       		.uleb128 0x1
 2705 00d5 50       		.byte	0x50
ARM GAS  C:\Users\aryan\AppData\Local\Temp\ccEOeQjh.s 			page 73


 2706 00d6 9F       		.byte	0x9f
 2707 00d7 4A000000 		.4byte	.LVL34
 2708 00db 5E000000 		.4byte	.LVL37
 2709 00df 0100     		.2byte	0x1
 2710 00e1 50       		.byte	0x50
 2711 00e2 5E000000 		.4byte	.LVL37
 2712 00e6 B0000000 		.4byte	.LFE4
 2713 00ea 0400     		.2byte	0x4
 2714 00ec F3       		.byte	0xf3
 2715 00ed 01       		.uleb128 0x1
 2716 00ee 50       		.byte	0x50
 2717 00ef 9F       		.byte	0x9f
 2718 00f0 00000000 		.4byte	0
 2719 00f4 00000000 		.4byte	0
 2720              	.LLST6:
 2721 00f8 5C000000 		.4byte	.LVL36
 2722 00fc 64000000 		.4byte	.LVL38
 2723 0100 0500     		.2byte	0x5
 2724 0102 71       		.byte	0x71
 2725 0103 00       		.sleb128 0
 2726 0104 38       		.byte	0x38
 2727 0105 24       		.byte	0x24
 2728 0106 9F       		.byte	0x9f
 2729 0107 64000000 		.4byte	.LVL38
 2730 010b 66000000 		.4byte	.LVL39
 2731 010f 0100     		.2byte	0x1
 2732 0111 52       		.byte	0x52
 2733 0112 66000000 		.4byte	.LVL39
 2734 0116 78000000 		.4byte	.LVL41
 2735 011a 0100     		.2byte	0x1
 2736 011c 53       		.byte	0x53
 2737 011d 00000000 		.4byte	0
 2738 0121 00000000 		.4byte	0
 2739              	.LLST7:
 2740 0125 24000000 		.4byte	.LVL27
 2741 0129 28000000 		.4byte	.LVL28
 2742 012d 0100     		.2byte	0x1
 2743 012f 55       		.byte	0x55
 2744 0130 2C000000 		.4byte	.LVL29
 2745 0134 92000000 		.4byte	.LVL44
 2746 0138 0100     		.2byte	0x1
 2747 013a 55       		.byte	0x55
 2748 013b 00000000 		.4byte	0
 2749 013f 00000000 		.4byte	0
 2750              	.LLST8:
 2751 0143 16000000 		.4byte	.LVL25
 2752 0147 36000000 		.4byte	.LVL31
 2753 014b 0100     		.2byte	0x1
 2754 014d 53       		.byte	0x53
 2755 014e 52000000 		.4byte	.LVL35
 2756 0152 66000000 		.4byte	.LVL39
 2757 0156 0100     		.2byte	0x1
 2758 0158 53       		.byte	0x53
 2759 0159 00000000 		.4byte	0
 2760 015d 00000000 		.4byte	0
 2761              	.LLST9:
 2762 0161 08000000 		.4byte	.LVL23
ARM GAS  C:\Users\aryan\AppData\Local\Temp\ccEOeQjh.s 			page 74


 2763 0165 18000000 		.4byte	.LVL26
 2764 0169 0100     		.2byte	0x1
 2765 016b 52       		.byte	0x52
 2766 016c 24000000 		.4byte	.LVL27
 2767 0170 28000000 		.4byte	.LVL28
 2768 0174 0200     		.2byte	0x2
 2769 0176 31       		.byte	0x31
 2770 0177 9F       		.byte	0x9f
 2771 0178 2C000000 		.4byte	.LVL29
 2772 017c 2E000000 		.4byte	.LVL30
 2773 0180 0200     		.2byte	0x2
 2774 0182 30       		.byte	0x30
 2775 0183 9F       		.byte	0x9f
 2776 0184 2E000000 		.4byte	.LVL30
 2777 0188 92000000 		.4byte	.LVL44
 2778 018c 0100     		.2byte	0x1
 2779 018e 57       		.byte	0x57
 2780 018f 00000000 		.4byte	0
 2781 0193 00000000 		.4byte	0
 2782              	.LLST10:
 2783 0197 10000000 		.4byte	.LVL24
 2784 019b 92000000 		.4byte	.LVL44
 2785 019f 0100     		.2byte	0x1
 2786 01a1 56       		.byte	0x56
 2787 01a2 00000000 		.4byte	0
 2788 01a6 00000000 		.4byte	0
 2789              	.LLST11:
 2790 01aa 02000000 		.4byte	.LVL45
 2791 01ae 06000000 		.4byte	.LVL46
 2792 01b2 0200     		.2byte	0x2
 2793 01b4 30       		.byte	0x30
 2794 01b5 9F       		.byte	0x9f
 2795 01b6 06000000 		.4byte	.LVL46
 2796 01ba 20000000 		.4byte	.LVL49
 2797 01be 0100     		.2byte	0x1
 2798 01c0 54       		.byte	0x54
 2799 01c1 22000000 		.4byte	.LVL50
 2800 01c5 28000000 		.4byte	.LVL51
 2801 01c9 0100     		.2byte	0x1
 2802 01cb 54       		.byte	0x54
 2803 01cc 00000000 		.4byte	0
 2804 01d0 00000000 		.4byte	0
 2805              	.LLST12:
 2806 01d4 10000000 		.4byte	.LVL47
 2807 01d8 1D000000 		.4byte	.LVL48-1
 2808 01dc 0100     		.2byte	0x1
 2809 01de 53       		.byte	0x53
 2810 01df 1D000000 		.4byte	.LVL48-1
 2811 01e3 20000000 		.4byte	.LVL49
 2812 01e7 0700     		.2byte	0x7
 2813 01e9 31       		.byte	0x31
 2814 01ea 74       		.byte	0x74
 2815 01eb 00       		.sleb128 0
 2816 01ec 37       		.byte	0x37
 2817 01ed 1A       		.byte	0x1a
 2818 01ee 24       		.byte	0x24
 2819 01ef 9F       		.byte	0x9f
ARM GAS  C:\Users\aryan\AppData\Local\Temp\ccEOeQjh.s 			page 75


 2820 01f0 20000000 		.4byte	.LVL49
 2821 01f4 22000000 		.4byte	.LVL50
 2822 01f8 0700     		.2byte	0x7
 2823 01fa 31       		.byte	0x31
 2824 01fb 74       		.byte	0x74
 2825 01fc 7F       		.sleb128 -1
 2826 01fd 37       		.byte	0x37
 2827 01fe 1A       		.byte	0x1a
 2828 01ff 24       		.byte	0x24
 2829 0200 9F       		.byte	0x9f
 2830 0201 00000000 		.4byte	0
 2831 0205 00000000 		.4byte	0
 2832              	.LLST13:
 2833 0209 00000000 		.4byte	.LVL52
 2834 020d 3E000000 		.4byte	.LVL64
 2835 0211 0100     		.2byte	0x1
 2836 0213 50       		.byte	0x50
 2837 0214 3E000000 		.4byte	.LVL64
 2838 0218 52000000 		.4byte	.LVL66
 2839 021c 0400     		.2byte	0x4
 2840 021e F3       		.byte	0xf3
 2841 021f 01       		.uleb128 0x1
 2842 0220 50       		.byte	0x50
 2843 0221 9F       		.byte	0x9f
 2844 0222 52000000 		.4byte	.LVL66
 2845 0226 5A000000 		.4byte	.LVL67
 2846 022a 0100     		.2byte	0x1
 2847 022c 50       		.byte	0x50
 2848 022d 5A000000 		.4byte	.LVL67
 2849 0231 9C000000 		.4byte	.LFE6
 2850 0235 0400     		.2byte	0x4
 2851 0237 F3       		.byte	0xf3
 2852 0238 01       		.uleb128 0x1
 2853 0239 50       		.byte	0x50
 2854 023a 9F       		.byte	0x9f
 2855 023b 00000000 		.4byte	0
 2856 023f 00000000 		.4byte	0
 2857              	.LLST14:
 2858 0243 20000000 		.4byte	.LVL59
 2859 0247 2A000000 		.4byte	.LVL61
 2860 024b 0200     		.2byte	0x2
 2861 024d 32       		.byte	0x32
 2862 024e 9F       		.byte	0x9f
 2863 024f 2E000000 		.4byte	.LVL63
 2864 0253 66000000 		.4byte	.LVL69
 2865 0257 0100     		.2byte	0x1
 2866 0259 52       		.byte	0x52
 2867 025a 78000000 		.4byte	.LVL70
 2868 025e 7C000000 		.4byte	.LVL71
 2869 0262 0100     		.2byte	0x1
 2870 0264 52       		.byte	0x52
 2871 0265 00000000 		.4byte	0
 2872 0269 00000000 		.4byte	0
 2873              	.LLST15:
 2874 026d 04000000 		.4byte	.LVL53
 2875 0271 88000000 		.4byte	.LVL72
 2876 0275 0100     		.2byte	0x1
ARM GAS  C:\Users\aryan\AppData\Local\Temp\ccEOeQjh.s 			page 76


 2877 0277 54       		.byte	0x54
 2878 0278 00000000 		.4byte	0
 2879 027c 00000000 		.4byte	0
 2880              	.LLST16:
 2881 0280 12000000 		.4byte	.LVL55
 2882 0284 24000000 		.4byte	.LVL60
 2883 0288 0100     		.2byte	0x1
 2884 028a 52       		.byte	0x52
 2885 028b 2A000000 		.4byte	.LVL61
 2886 028f 2C000000 		.4byte	.LVL62
 2887 0293 0100     		.2byte	0x1
 2888 0295 52       		.byte	0x52
 2889 0296 2C000000 		.4byte	.LVL62
 2890 029a 2E000000 		.4byte	.LVL63
 2891 029e 0300     		.2byte	0x3
 2892 02a0 72       		.byte	0x72
 2893 02a1 01       		.sleb128 1
 2894 02a2 9F       		.byte	0x9f
 2895 02a3 00000000 		.4byte	0
 2896 02a7 00000000 		.4byte	0
 2897              	.LLST17:
 2898 02ab 1A000000 		.4byte	.LVL56
 2899 02af 88000000 		.4byte	.LVL72
 2900 02b3 0100     		.2byte	0x1
 2901 02b5 57       		.byte	0x57
 2902 02b6 00000000 		.4byte	0
 2903 02ba 00000000 		.4byte	0
 2904              	.LLST18:
 2905 02be 1C000000 		.4byte	.LVL57
 2906 02c2 40000000 		.4byte	.LVL65
 2907 02c6 0100     		.2byte	0x1
 2908 02c8 51       		.byte	0x51
 2909 02c9 52000000 		.4byte	.LVL66
 2910 02cd 5C000000 		.4byte	.LVL68
 2911 02d1 0100     		.2byte	0x1
 2912 02d3 51       		.byte	0x51
 2913 02d4 00000000 		.4byte	0
 2914 02d8 00000000 		.4byte	0
 2915              	.LLST19:
 2916 02dc 1E000000 		.4byte	.LVL58
 2917 02e0 88000000 		.4byte	.LVL72
 2918 02e4 0100     		.2byte	0x1
 2919 02e6 56       		.byte	0x56
 2920 02e7 00000000 		.4byte	0
 2921 02eb 00000000 		.4byte	0
 2922              	.LLST20:
 2923 02ef 00000000 		.4byte	.LVL73
 2924 02f3 06000000 		.4byte	.LVL74
 2925 02f7 0100     		.2byte	0x1
 2926 02f9 50       		.byte	0x50
 2927 02fa 06000000 		.4byte	.LVL74
 2928 02fe 2C000000 		.4byte	.LFE7
 2929 0302 0400     		.2byte	0x4
 2930 0304 F3       		.byte	0xf3
 2931 0305 01       		.uleb128 0x1
 2932 0306 50       		.byte	0x50
 2933 0307 9F       		.byte	0x9f
ARM GAS  C:\Users\aryan\AppData\Local\Temp\ccEOeQjh.s 			page 77


 2934 0308 00000000 		.4byte	0
 2935 030c 00000000 		.4byte	0
 2936              	.LLST21:
 2937 0310 08000000 		.4byte	.LVL75
 2938 0314 1E000000 		.4byte	.LVL80
 2939 0318 0100     		.2byte	0x1
 2940 031a 54       		.byte	0x54
 2941 031b 20000000 		.4byte	.LVL81
 2942 031f 28000000 		.4byte	.LVL82
 2943 0323 0100     		.2byte	0x1
 2944 0325 54       		.byte	0x54
 2945 0326 00000000 		.4byte	0
 2946 032a 00000000 		.4byte	0
 2947              	.LLST22:
 2948 032e 10000000 		.4byte	.LVL76
 2949 0332 28000000 		.4byte	.LVL82
 2950 0336 0100     		.2byte	0x1
 2951 0338 55       		.byte	0x55
 2952 0339 00000000 		.4byte	0
 2953 033d 00000000 		.4byte	0
 2954              	.LLST23:
 2955 0341 10000000 		.4byte	.LVL76
 2956 0345 12000000 		.4byte	.LVL77
 2957 0349 0200     		.2byte	0x2
 2958 034b 30       		.byte	0x30
 2959 034c 9F       		.byte	0x9f
 2960 034d 12000000 		.4byte	.LVL77
 2961 0351 28000000 		.4byte	.LVL82
 2962 0355 0100     		.2byte	0x1
 2963 0357 56       		.byte	0x56
 2964 0358 00000000 		.4byte	0
 2965 035c 00000000 		.4byte	0
 2966              	.LLST24:
 2967 0360 02000000 		.4byte	.LVL83
 2968 0364 08000000 		.4byte	.LVL84
 2969 0368 0200     		.2byte	0x2
 2970 036a 30       		.byte	0x30
 2971 036b 9F       		.byte	0x9f
 2972 036c 08000000 		.4byte	.LVL84
 2973 0370 14000000 		.4byte	.LVL87
 2974 0374 0100     		.2byte	0x1
 2975 0376 54       		.byte	0x54
 2976 0377 16000000 		.4byte	.LVL88
 2977 037b 1E000000 		.4byte	.LFE8
 2978 037f 0100     		.2byte	0x1
 2979 0381 54       		.byte	0x54
 2980 0382 00000000 		.4byte	0
 2981 0386 00000000 		.4byte	0
 2982              	.LLST25:
 2983 038a 02000000 		.4byte	.LVL83
 2984 038e 08000000 		.4byte	.LVL84
 2985 0392 0200     		.2byte	0x2
 2986 0394 30       		.byte	0x30
 2987 0395 9F       		.byte	0x9f
 2988 0396 08000000 		.4byte	.LVL84
 2989 039a 1E000000 		.4byte	.LFE8
 2990 039e 0100     		.2byte	0x1
ARM GAS  C:\Users\aryan\AppData\Local\Temp\ccEOeQjh.s 			page 78


 2991 03a0 55       		.byte	0x55
 2992 03a1 00000000 		.4byte	0
 2993 03a5 00000000 		.4byte	0
 2994              	.LLST26:
 2995 03a9 00000000 		.4byte	.LVL89
 2996 03ad 06000000 		.4byte	.LVL90
 2997 03b1 0100     		.2byte	0x1
 2998 03b3 50       		.byte	0x50
 2999 03b4 06000000 		.4byte	.LVL90
 3000 03b8 38000000 		.4byte	.LFE9
 3001 03bc 0400     		.2byte	0x4
 3002 03be F3       		.byte	0xf3
 3003 03bf 01       		.uleb128 0x1
 3004 03c0 50       		.byte	0x50
 3005 03c1 9F       		.byte	0x9f
 3006 03c2 00000000 		.4byte	0
 3007 03c6 00000000 		.4byte	0
 3008              	.LLST27:
 3009 03ca 1C000000 		.4byte	.LVL94
 3010 03ce 22000000 		.4byte	.LVL95
 3011 03d2 0100     		.2byte	0x1
 3012 03d4 52       		.byte	0x52
 3013 03d5 22000000 		.4byte	.LVL95
 3014 03d9 26000000 		.4byte	.LVL96
 3015 03dd 0700     		.2byte	0x7
 3016 03df 31       		.byte	0x31
 3017 03e0 73       		.byte	0x73
 3018 03e1 00       		.sleb128 0
 3019 03e2 37       		.byte	0x37
 3020 03e3 1A       		.byte	0x1a
 3021 03e4 24       		.byte	0x24
 3022 03e5 9F       		.byte	0x9f
 3023 03e6 26000000 		.4byte	.LVL96
 3024 03ea 28000000 		.4byte	.LVL97
 3025 03ee 0700     		.2byte	0x7
 3026 03f0 31       		.byte	0x31
 3027 03f1 73       		.byte	0x73
 3028 03f2 7F       		.sleb128 -1
 3029 03f3 37       		.byte	0x37
 3030 03f4 1A       		.byte	0x1a
 3031 03f5 24       		.byte	0x24
 3032 03f6 9F       		.byte	0x9f
 3033 03f7 00000000 		.4byte	0
 3034 03fb 00000000 		.4byte	0
 3035              	.LLST28:
 3036 03ff 08000000 		.4byte	.LVL91
 3037 0403 26000000 		.4byte	.LVL96
 3038 0407 0100     		.2byte	0x1
 3039 0409 53       		.byte	0x53
 3040 040a 28000000 		.4byte	.LVL97
 3041 040e 38000000 		.4byte	.LFE9
 3042 0412 0100     		.2byte	0x1
 3043 0414 53       		.byte	0x53
 3044 0415 00000000 		.4byte	0
 3045 0419 00000000 		.4byte	0
 3046              	.LLST29:
 3047 041d 10000000 		.4byte	.LVL92
ARM GAS  C:\Users\aryan\AppData\Local\Temp\ccEOeQjh.s 			page 79


 3048 0421 2E000000 		.4byte	.LVL98
 3049 0425 0100     		.2byte	0x1
 3050 0427 55       		.byte	0x55
 3051 0428 00000000 		.4byte	0
 3052 042c 00000000 		.4byte	0
 3053              	.LLST30:
 3054 0430 00000000 		.4byte	.LVL99
 3055 0434 06000000 		.4byte	.LVL100
 3056 0438 0100     		.2byte	0x1
 3057 043a 50       		.byte	0x50
 3058 043b 06000000 		.4byte	.LVL100
 3059 043f 3C000000 		.4byte	.LFE10
 3060 0443 0400     		.2byte	0x4
 3061 0445 F3       		.byte	0xf3
 3062 0446 01       		.uleb128 0x1
 3063 0447 50       		.byte	0x50
 3064 0448 9F       		.byte	0x9f
 3065 0449 00000000 		.4byte	0
 3066 044d 00000000 		.4byte	0
 3067              	.LLST31:
 3068 0451 1C000000 		.4byte	.LVL104
 3069 0455 24000000 		.4byte	.LVL105
 3070 0459 0100     		.2byte	0x1
 3071 045b 52       		.byte	0x52
 3072 045c 24000000 		.4byte	.LVL105
 3073 0460 28000000 		.4byte	.LVL106
 3074 0464 0700     		.2byte	0x7
 3075 0466 31       		.byte	0x31
 3076 0467 73       		.byte	0x73
 3077 0468 00       		.sleb128 0
 3078 0469 37       		.byte	0x37
 3079 046a 1A       		.byte	0x1a
 3080 046b 24       		.byte	0x24
 3081 046c 9F       		.byte	0x9f
 3082 046d 28000000 		.4byte	.LVL106
 3083 0471 2A000000 		.4byte	.LVL107
 3084 0475 0700     		.2byte	0x7
 3085 0477 31       		.byte	0x31
 3086 0478 73       		.byte	0x73
 3087 0479 7F       		.sleb128 -1
 3088 047a 37       		.byte	0x37
 3089 047b 1A       		.byte	0x1a
 3090 047c 24       		.byte	0x24
 3091 047d 9F       		.byte	0x9f
 3092 047e 00000000 		.4byte	0
 3093 0482 00000000 		.4byte	0
 3094              	.LLST32:
 3095 0486 08000000 		.4byte	.LVL101
 3096 048a 28000000 		.4byte	.LVL106
 3097 048e 0100     		.2byte	0x1
 3098 0490 53       		.byte	0x53
 3099 0491 2A000000 		.4byte	.LVL107
 3100 0495 3C000000 		.4byte	.LFE10
 3101 0499 0100     		.2byte	0x1
 3102 049b 53       		.byte	0x53
 3103 049c 00000000 		.4byte	0
 3104 04a0 00000000 		.4byte	0
ARM GAS  C:\Users\aryan\AppData\Local\Temp\ccEOeQjh.s 			page 80


 3105              	.LLST33:
 3106 04a4 10000000 		.4byte	.LVL102
 3107 04a8 30000000 		.4byte	.LVL108
 3108 04ac 0100     		.2byte	0x1
 3109 04ae 55       		.byte	0x55
 3110 04af 00000000 		.4byte	0
 3111 04b3 00000000 		.4byte	0
 3112              	.LLST34:
 3113 04b7 00000000 		.4byte	.LVL109
 3114 04bb 0C000000 		.4byte	.LVL112
 3115 04bf 0100     		.2byte	0x1
 3116 04c1 50       		.byte	0x50
 3117 04c2 0C000000 		.4byte	.LVL112
 3118 04c6 30000000 		.4byte	.LFE11
 3119 04ca 0400     		.2byte	0x4
 3120 04cc F3       		.byte	0xf3
 3121 04cd 01       		.uleb128 0x1
 3122 04ce 50       		.byte	0x50
 3123 04cf 9F       		.byte	0x9f
 3124 04d0 00000000 		.4byte	0
 3125 04d4 00000000 		.4byte	0
 3126              	.LLST35:
 3127 04d8 08000000 		.4byte	.LVL111
 3128 04dc 10000000 		.4byte	.LVL113
 3129 04e0 0200     		.2byte	0x2
 3130 04e2 30       		.byte	0x30
 3131 04e3 9F       		.byte	0x9f
 3132 04e4 10000000 		.4byte	.LVL113
 3133 04e8 22000000 		.4byte	.LVL116
 3134 04ec 0100     		.2byte	0x1
 3135 04ee 53       		.byte	0x53
 3136 04ef 24000000 		.4byte	.LVL117
 3137 04f3 30000000 		.4byte	.LFE11
 3138 04f7 0100     		.2byte	0x1
 3139 04f9 53       		.byte	0x53
 3140 04fa 00000000 		.4byte	0
 3141 04fe 00000000 		.4byte	0
 3142              	.LLST36:
 3143 0502 02000000 		.4byte	.LVL110
 3144 0506 10000000 		.4byte	.LVL113
 3145 050a 0300     		.2byte	0x3
 3146 050c 09       		.byte	0x9
 3147 050d FF       		.byte	0xff
 3148 050e 9F       		.byte	0x9f
 3149 050f 10000000 		.4byte	.LVL113
 3150 0513 30000000 		.4byte	.LFE11
 3151 0517 0100     		.2byte	0x1
 3152 0519 50       		.byte	0x50
 3153 051a 00000000 		.4byte	0
 3154 051e 00000000 		.4byte	0
 3155              	.LLST37:
 3156 0522 02000000 		.4byte	.LVL110
 3157 0526 10000000 		.4byte	.LVL113
 3158 052a 0200     		.2byte	0x2
 3159 052c 30       		.byte	0x30
 3160 052d 9F       		.byte	0x9f
 3161 052e 10000000 		.4byte	.LVL113
ARM GAS  C:\Users\aryan\AppData\Local\Temp\ccEOeQjh.s 			page 81


 3162 0532 1E000000 		.4byte	.LVL114
 3163 0536 0100     		.2byte	0x1
 3164 0538 56       		.byte	0x56
 3165 0539 20000000 		.4byte	.LVL115
 3166 053d 2A000000 		.4byte	.LVL118
 3167 0541 0100     		.2byte	0x1
 3168 0543 56       		.byte	0x56
 3169 0544 00000000 		.4byte	0
 3170 0548 00000000 		.4byte	0
 3171              	.LLST38:
 3172 054c 08000000 		.4byte	.LVL111
 3173 0550 2A000000 		.4byte	.LVL118
 3174 0554 0100     		.2byte	0x1
 3175 0556 55       		.byte	0x55
 3176 0557 00000000 		.4byte	0
 3177 055b 00000000 		.4byte	0
 3178              	.LLST39:
 3179 055f 00000000 		.4byte	.LVL119
 3180 0563 1A000000 		.4byte	.LVL125
 3181 0567 0100     		.2byte	0x1
 3182 0569 50       		.byte	0x50
 3183 056a 1A000000 		.4byte	.LVL125
 3184 056e B8000000 		.4byte	.LFE12
 3185 0572 0400     		.2byte	0x4
 3186 0574 F3       		.byte	0xf3
 3187 0575 01       		.uleb128 0x1
 3188 0576 50       		.byte	0x50
 3189 0577 9F       		.byte	0x9f
 3190 0578 00000000 		.4byte	0
 3191 057c 00000000 		.4byte	0
 3192              	.LLST40:
 3193 0580 00000000 		.4byte	.LVL119
 3194 0584 0C000000 		.4byte	.LVL121
 3195 0588 0100     		.2byte	0x1
 3196 058a 51       		.byte	0x51
 3197 058b 0C000000 		.4byte	.LVL121
 3198 058f B8000000 		.4byte	.LFE12
 3199 0593 0400     		.2byte	0x4
 3200 0595 F3       		.byte	0xf3
 3201 0596 01       		.uleb128 0x1
 3202 0597 51       		.byte	0x51
 3203 0598 9F       		.byte	0x9f
 3204 0599 00000000 		.4byte	0
 3205 059d 00000000 		.4byte	0
 3206              	.LLST41:
 3207 05a1 00000000 		.4byte	.LVL119
 3208 05a5 36000000 		.4byte	.LVL130
 3209 05a9 0100     		.2byte	0x1
 3210 05ab 52       		.byte	0x52
 3211 05ac 36000000 		.4byte	.LVL130
 3212 05b0 B8000000 		.4byte	.LFE12
 3213 05b4 0400     		.2byte	0x4
 3214 05b6 F3       		.byte	0xf3
 3215 05b7 01       		.uleb128 0x1
 3216 05b8 52       		.byte	0x52
 3217 05b9 9F       		.byte	0x9f
 3218 05ba 00000000 		.4byte	0
ARM GAS  C:\Users\aryan\AppData\Local\Temp\ccEOeQjh.s 			page 82


 3219 05be 00000000 		.4byte	0
 3220              	.LLST42:
 3221 05c2 00000000 		.4byte	.LVL119
 3222 05c6 B0000000 		.4byte	.LVL144
 3223 05ca 0200     		.2byte	0x2
 3224 05cc 91       		.byte	0x91
 3225 05cd 00       		.sleb128 0
 3226 05ce B0000000 		.4byte	.LVL144
 3227 05d2 B8000000 		.4byte	.LFE12
 3228 05d6 0200     		.2byte	0x2
 3229 05d8 7D       		.byte	0x7d
 3230 05d9 00       		.sleb128 0
 3231 05da 00000000 		.4byte	0
 3232 05de 00000000 		.4byte	0
 3233              	.LLST43:
 3234 05e2 06000000 		.4byte	.LVL120
 3235 05e6 14000000 		.4byte	.LVL122
 3236 05ea 0200     		.2byte	0x2
 3237 05ec 30       		.byte	0x30
 3238 05ed 9F       		.byte	0x9f
 3239 05ee 14000000 		.4byte	.LVL122
 3240 05f2 16000000 		.4byte	.LVL123
 3241 05f6 0100     		.2byte	0x1
 3242 05f8 56       		.byte	0x56
 3243 05f9 16000000 		.4byte	.LVL123
 3244 05fd 18000000 		.4byte	.LVL124
 3245 0601 0200     		.2byte	0x2
 3246 0603 30       		.byte	0x30
 3247 0604 9F       		.byte	0x9f
 3248 0605 18000000 		.4byte	.LVL124
 3249 0609 2A000000 		.4byte	.LVL127
 3250 060d 0100     		.2byte	0x1
 3251 060f 56       		.byte	0x56
 3252 0610 34000000 		.4byte	.LVL129
 3253 0614 4C000000 		.4byte	.LVL133
 3254 0618 0100     		.2byte	0x1
 3255 061a 56       		.byte	0x56
 3256 061b 00000000 		.4byte	0
 3257 061f 00000000 		.4byte	0
 3258              	.LLST44:
 3259 0623 06000000 		.4byte	.LVL120
 3260 0627 1C000000 		.4byte	.LVL126
 3261 062b 0200     		.2byte	0x2
 3262 062d 30       		.byte	0x30
 3263 062e 9F       		.byte	0x9f
 3264 062f 1C000000 		.4byte	.LVL126
 3265 0633 86000000 		.4byte	.LVL135
 3266 0637 0100     		.2byte	0x1
 3267 0639 50       		.byte	0x50
 3268 063a 86000000 		.4byte	.LVL135
 3269 063e B0000000 		.4byte	.LVL144
 3270 0642 0300     		.2byte	0x3
 3271 0644 74       		.byte	0x74
 3272 0645 01       		.sleb128 1
 3273 0646 9F       		.byte	0x9f
 3274 0647 00000000 		.4byte	0
 3275 064b 00000000 		.4byte	0
ARM GAS  C:\Users\aryan\AppData\Local\Temp\ccEOeQjh.s 			page 83


 3276              	.LLST45:
 3277 064f AA000000 		.4byte	.LVL142
 3278 0653 AE000000 		.4byte	.LVL143
 3279 0657 0900     		.2byte	0x9
 3280 0659 70       		.byte	0x70
 3281 065a 00       		.sleb128 0
 3282 065b 09       		.byte	0x9
 3283 065c EC       		.byte	0xec
 3284 065d 24       		.byte	0x24
 3285 065e 09       		.byte	0x9
 3286 065f FC       		.byte	0xfc
 3287 0660 25       		.byte	0x25
 3288 0661 9F       		.byte	0x9f
 3289 0662 AE000000 		.4byte	.LVL143
 3290 0666 B0000000 		.4byte	.LVL144
 3291 066a 2400     		.2byte	0x24
 3292 066c 74       		.byte	0x74
 3293 066d 00       		.sleb128 0
 3294 066e 38       		.byte	0x38
 3295 066f 24       		.byte	0x24
 3296 0670 72       		.byte	0x72
 3297 0671 00       		.sleb128 0
 3298 0672 03       		.byte	0x3
 3299 0673 08000000 		.4byte	CapSense_CSD_centroid.5259+4
 3300 0677 94       		.byte	0x94
 3301 0678 02       		.byte	0x2
 3302 0679 0A       		.byte	0xa
 3303 067a FFFF     		.2byte	0xffff
 3304 067c 1A       		.byte	0x1a
 3305 067d 71       		.byte	0x71
 3306 067e 00       		.sleb128 0
 3307 067f 22       		.byte	0x22
 3308 0680 1B       		.byte	0x1b
 3309 0681 22       		.byte	0x22
 3310 0682 73       		.byte	0x73
 3311 0683 00       		.sleb128 0
 3312 0684 1E       		.byte	0x1e
 3313 0685 23       		.byte	0x23
 3314 0686 80FE01   		.uleb128 0x7f00
 3315 0689 09       		.byte	0x9
 3316 068a EC       		.byte	0xec
 3317 068b 24       		.byte	0x24
 3318 068c 09       		.byte	0x9
 3319 068d FC       		.byte	0xfc
 3320 068e 25       		.byte	0x25
 3321 068f 9F       		.byte	0x9f
 3322 0690 00000000 		.4byte	0
 3323 0694 00000000 		.4byte	0
 3324              	.LLST46:
 3325 0698 92000000 		.4byte	.LVL136
 3326 069c 98000000 		.4byte	.LVL138
 3327 06a0 0100     		.2byte	0x1
 3328 06a2 52       		.byte	0x52
 3329 06a3 98000000 		.4byte	.LVL138
 3330 06a7 B0000000 		.4byte	.LVL144
 3331 06ab 0F00     		.2byte	0xf
 3332 06ad 03       		.byte	0x3
ARM GAS  C:\Users\aryan\AppData\Local\Temp\ccEOeQjh.s 			page 84


 3333 06ae 08000000 		.4byte	CapSense_CSD_centroid.5259+4
 3334 06b2 94       		.byte	0x94
 3335 06b3 02       		.byte	0x2
 3336 06b4 0A       		.byte	0xa
 3337 06b5 FFFF     		.2byte	0xffff
 3338 06b7 1A       		.byte	0x1a
 3339 06b8 75       		.byte	0x75
 3340 06b9 00       		.sleb128 0
 3341 06ba 1C       		.byte	0x1c
 3342 06bb 9F       		.byte	0x9f
 3343 06bc B0000000 		.4byte	.LVL144
 3344 06c0 B8000000 		.4byte	.LFE12
 3345 06c4 1800     		.2byte	0x18
 3346 06c6 03       		.byte	0x3
 3347 06c7 08000000 		.4byte	CapSense_CSD_centroid.5259+4
 3348 06cb 94       		.byte	0x94
 3349 06cc 02       		.byte	0x2
 3350 06cd 0A       		.byte	0xa
 3351 06ce FFFF     		.2byte	0xffff
 3352 06d0 1A       		.byte	0x1a
 3353 06d1 03       		.byte	0x3
 3354 06d2 04000000 		.4byte	CapSense_CSD_centroid.5259
 3355 06d6 94       		.byte	0x94
 3356 06d7 02       		.byte	0x2
 3357 06d8 0A       		.byte	0xa
 3358 06d9 FFFF     		.2byte	0xffff
 3359 06db 1A       		.byte	0x1a
 3360 06dc 1C       		.byte	0x1c
 3361 06dd 9F       		.byte	0x9f
 3362 06de 00000000 		.4byte	0
 3363 06e2 00000000 		.4byte	0
 3364              	.LLST47:
 3365 06e6 96000000 		.4byte	.LVL137
 3366 06ea 9C000000 		.4byte	.LVL139
 3367 06ee 0100     		.2byte	0x1
 3368 06f0 50       		.byte	0x50
 3369 06f1 9C000000 		.4byte	.LVL139
 3370 06f5 A0000000 		.4byte	.LVL140
 3371 06f9 0F00     		.2byte	0xf
 3372 06fb 03       		.byte	0x3
 3373 06fc 08000000 		.4byte	CapSense_CSD_centroid.5259+4
 3374 0700 94       		.byte	0x94
 3375 0701 02       		.byte	0x2
 3376 0702 0A       		.byte	0xa
 3377 0703 FFFF     		.2byte	0xffff
 3378 0705 1A       		.byte	0x1a
 3379 0706 71       		.byte	0x71
 3380 0707 00       		.sleb128 0
 3381 0708 22       		.byte	0x22
 3382 0709 9F       		.byte	0x9f
 3383 070a A0000000 		.4byte	.LVL140
 3384 070e AA000000 		.4byte	.LVL142
 3385 0712 0100     		.2byte	0x1
 3386 0714 50       		.byte	0x50
 3387 0715 AA000000 		.4byte	.LVL142
 3388 0719 AE000000 		.4byte	.LVL143
 3389 071d 0500     		.2byte	0x5
ARM GAS  C:\Users\aryan\AppData\Local\Temp\ccEOeQjh.s 			page 85


 3390 071f 70       		.byte	0x70
 3391 0720 80827E   		.sleb128 -32512
 3392 0723 9F       		.byte	0x9f
 3393 0724 AE000000 		.4byte	.LVL143
 3394 0728 B0000000 		.4byte	.LVL144
 3395 072c 1A00     		.2byte	0x1a
 3396 072e 74       		.byte	0x74
 3397 072f 00       		.sleb128 0
 3398 0730 38       		.byte	0x38
 3399 0731 24       		.byte	0x24
 3400 0732 72       		.byte	0x72
 3401 0733 00       		.sleb128 0
 3402 0734 03       		.byte	0x3
 3403 0735 08000000 		.4byte	CapSense_CSD_centroid.5259+4
 3404 0739 94       		.byte	0x94
 3405 073a 02       		.byte	0x2
 3406 073b 0A       		.byte	0xa
 3407 073c FFFF     		.2byte	0xffff
 3408 073e 1A       		.byte	0x1a
 3409 073f 71       		.byte	0x71
 3410 0740 00       		.sleb128 0
 3411 0741 22       		.byte	0x22
 3412 0742 1B       		.byte	0x1b
 3413 0743 22       		.byte	0x22
 3414 0744 73       		.byte	0x73
 3415 0745 00       		.sleb128 0
 3416 0746 1E       		.byte	0x1e
 3417 0747 9F       		.byte	0x9f
 3418 0748 00000000 		.4byte	0
 3419 074c 00000000 		.4byte	0
 3420              	.LLST48:
 3421 0750 0C000000 		.4byte	.LVL121
 3422 0754 30000000 		.4byte	.LVL128
 3423 0758 0100     		.2byte	0x1
 3424 075a 51       		.byte	0x51
 3425 075b 34000000 		.4byte	.LVL129
 3426 075f 3E000000 		.4byte	.LVL131
 3427 0763 0100     		.2byte	0x1
 3428 0765 51       		.byte	0x51
 3429 0766 48000000 		.4byte	.LVL132
 3430 076a 54000000 		.4byte	.LVL134
 3431 076e 0100     		.2byte	0x1
 3432 0770 51       		.byte	0x51
 3433 0771 00000000 		.4byte	0
 3434 0775 00000000 		.4byte	0
 3435              	.LLST49:
 3436 0779 00000000 		.4byte	.LVL145
 3437 077d 1A000000 		.4byte	.LVL148
 3438 0781 0100     		.2byte	0x1
 3439 0783 50       		.byte	0x50
 3440 0784 1A000000 		.4byte	.LVL148
 3441 0788 48000000 		.4byte	.LFE13
 3442 078c 0400     		.2byte	0x4
 3443 078e F3       		.byte	0xf3
 3444 078f 01       		.uleb128 0x1
 3445 0790 50       		.byte	0x50
 3446 0791 9F       		.byte	0x9f
ARM GAS  C:\Users\aryan\AppData\Local\Temp\ccEOeQjh.s 			page 86


 3447 0792 00000000 		.4byte	0
 3448 0796 00000000 		.4byte	0
 3449              	.LLST50:
 3450 079a 1E000000 		.4byte	.LVL149
 3451 079e 37000000 		.4byte	.LVL150-1
 3452 07a2 0100     		.2byte	0x1
 3453 07a4 50       		.byte	0x50
 3454 07a5 3C000000 		.4byte	.LVL152
 3455 07a9 40000000 		.4byte	.LVL153
 3456 07ad 0100     		.2byte	0x1
 3457 07af 50       		.byte	0x50
 3458 07b0 00000000 		.4byte	0
 3459 07b4 00000000 		.4byte	0
 3460              	.LLST51:
 3461 07b8 3A000000 		.4byte	.LVL151
 3462 07bc 3C000000 		.4byte	.LVL152
 3463 07c0 0100     		.2byte	0x1
 3464 07c2 50       		.byte	0x50
 3465 07c3 40000000 		.4byte	.LVL153
 3466 07c7 48000000 		.4byte	.LFE13
 3467 07cb 0100     		.2byte	0x1
 3468 07cd 50       		.byte	0x50
 3469 07ce 00000000 		.4byte	0
 3470 07d2 00000000 		.4byte	0
 3471              	.LLST52:
 3472 07d6 0C000000 		.4byte	.LVL146
 3473 07da 44000000 		.4byte	.LVL154
 3474 07de 0100     		.2byte	0x1
 3475 07e0 55       		.byte	0x55
 3476 07e1 00000000 		.4byte	0
 3477 07e5 00000000 		.4byte	0
 3478              	.LLST53:
 3479 07e9 10000000 		.4byte	.LVL147
 3480 07ed 44000000 		.4byte	.LVL154
 3481 07f1 0100     		.2byte	0x1
 3482 07f3 56       		.byte	0x56
 3483 07f4 00000000 		.4byte	0
 3484 07f8 00000000 		.4byte	0
 3485              		.section	.debug_aranges,"",%progbits
 3486 0000 84000000 		.4byte	0x84
 3487 0004 0200     		.2byte	0x2
 3488 0006 00000000 		.4byte	.Ldebug_info0
 3489 000a 04       		.byte	0x4
 3490 000b 00       		.byte	0
 3491 000c 0000     		.2byte	0
 3492 000e 0000     		.2byte	0
 3493 0010 00000000 		.4byte	.LFB0
 3494 0014 48000000 		.4byte	.LFE0-.LFB0
 3495 0018 00000000 		.4byte	.LFB1
 3496 001c 18000000 		.4byte	.LFE1-.LFB1
 3497 0020 00000000 		.4byte	.LFB2
 3498 0024 16000000 		.4byte	.LFE2-.LFB2
 3499 0028 00000000 		.4byte	.LFB3
 3500 002c 44000000 		.4byte	.LFE3-.LFB3
 3501 0030 00000000 		.4byte	.LFB4
 3502 0034 B0000000 		.4byte	.LFE4-.LFB4
 3503 0038 00000000 		.4byte	.LFB5
ARM GAS  C:\Users\aryan\AppData\Local\Temp\ccEOeQjh.s 			page 87


 3504 003c 2C000000 		.4byte	.LFE5-.LFB5
 3505 0040 00000000 		.4byte	.LFB6
 3506 0044 9C000000 		.4byte	.LFE6-.LFB6
 3507 0048 00000000 		.4byte	.LFB7
 3508 004c 2C000000 		.4byte	.LFE7-.LFB7
 3509 0050 00000000 		.4byte	.LFB8
 3510 0054 1E000000 		.4byte	.LFE8-.LFB8
 3511 0058 00000000 		.4byte	.LFB9
 3512 005c 38000000 		.4byte	.LFE9-.LFB9
 3513 0060 00000000 		.4byte	.LFB10
 3514 0064 3C000000 		.4byte	.LFE10-.LFB10
 3515 0068 00000000 		.4byte	.LFB11
 3516 006c 30000000 		.4byte	.LFE11-.LFB11
 3517 0070 00000000 		.4byte	.LFB12
 3518 0074 B8000000 		.4byte	.LFE12-.LFB12
 3519 0078 00000000 		.4byte	.LFB13
 3520 007c 48000000 		.4byte	.LFE13-.LFB13
 3521 0080 00000000 		.4byte	0
 3522 0084 00000000 		.4byte	0
 3523              		.section	.debug_ranges,"",%progbits
 3524              	.Ldebug_ranges0:
 3525 0000 00000000 		.4byte	.LFB0
 3526 0004 48000000 		.4byte	.LFE0
 3527 0008 00000000 		.4byte	.LFB1
 3528 000c 18000000 		.4byte	.LFE1
 3529 0010 00000000 		.4byte	.LFB2
 3530 0014 16000000 		.4byte	.LFE2
 3531 0018 00000000 		.4byte	.LFB3
 3532 001c 44000000 		.4byte	.LFE3
 3533 0020 00000000 		.4byte	.LFB4
 3534 0024 B0000000 		.4byte	.LFE4
 3535 0028 00000000 		.4byte	.LFB5
 3536 002c 2C000000 		.4byte	.LFE5
 3537 0030 00000000 		.4byte	.LFB6
 3538 0034 9C000000 		.4byte	.LFE6
 3539 0038 00000000 		.4byte	.LFB7
 3540 003c 2C000000 		.4byte	.LFE7
 3541 0040 00000000 		.4byte	.LFB8
 3542 0044 1E000000 		.4byte	.LFE8
 3543 0048 00000000 		.4byte	.LFB9
 3544 004c 38000000 		.4byte	.LFE9
 3545 0050 00000000 		.4byte	.LFB10
 3546 0054 3C000000 		.4byte	.LFE10
 3547 0058 00000000 		.4byte	.LFB11
 3548 005c 30000000 		.4byte	.LFE11
 3549 0060 00000000 		.4byte	.LFB12
 3550 0064 B8000000 		.4byte	.LFE12
 3551 0068 00000000 		.4byte	.LFB13
 3552 006c 48000000 		.4byte	.LFE13
 3553 0070 00000000 		.4byte	0
 3554 0074 00000000 		.4byte	0
 3555              		.section	.debug_line,"",%progbits
 3556              	.Ldebug_line0:
 3557 0000 AB020000 		.section	.debug_str,"MS",%progbits,1
 3557      02007700 
 3557      00000201 
 3557      FB0E0D00 
ARM GAS  C:\Users\aryan\AppData\Local\Temp\ccEOeQjh.s 			page 88


 3557      01010101 
 3558              	.LASF80:
 3559 0000 47656E65 		.ascii	"Generated_Source\\PSoC5\\CapSense_CSD_CSHL.c\000"
 3559      72617465 
 3559      645F536F 
 3559      75726365 
 3559      5C50536F 
 3560              	.LASF47:
 3561 002b 636F756E 		.ascii	"count\000"
 3561      7400
 3562              	.LASF59:
 3563 0031 43617053 		.ascii	"CapSense_CSD_GetCentroidPos\000"
 3563      656E7365 
 3563      5F435344 
 3563      5F476574 
 3563      43656E74 
 3564              	.LASF10:
 3565 004d 75696E74 		.ascii	"uint16\000"
 3565      313600
 3566              	.LASF29:
 3567 0054 66696C74 		.ascii	"filteredRawData\000"
 3567      65726564 
 3567      52617744 
 3567      61746100 
 3568              	.LASF34:
 3569 0064 66696E67 		.ascii	"fingerThreshold\000"
 3569      65725468 
 3569      72657368 
 3569      6F6C6400 
 3570              	.LASF20:
 3571 0074 43617053 		.ascii	"CapSense_CSD_InitializeSensorBaseline\000"
 3571      656E7365 
 3571      5F435344 
 3571      5F496E69 
 3571      7469616C 
 3572              	.LASF53:
 3573 009a 706F7350 		.ascii	"posPrev\000"
 3573      72657600 
 3574              	.LASF7:
 3575 00a2 6C6F6E67 		.ascii	"long long unsigned int\000"
 3575      206C6F6E 
 3575      6720756E 
 3575      7369676E 
 3575      65642069 
 3576              	.LASF6:
 3577 00b9 6C6F6E67 		.ascii	"long long int\000"
 3577      206C6F6E 
 3577      6720696E 
 3577      7400
 3578              	.LASF0:
 3579 00c7 7369676E 		.ascii	"signed char\000"
 3579      65642063 
 3579      68617200 
 3580              	.LASF39:
 3581 00d3 72617749 		.ascii	"rawIndex\000"
 3581      6E646578 
 3581      00
ARM GAS  C:\Users\aryan\AppData\Local\Temp\ccEOeQjh.s 			page 89


 3582              	.LASF40:
 3583 00dc 6E756D62 		.ascii	"numberOfSensors\000"
 3583      65724F66 
 3583      53656E73 
 3583      6F727300 
 3584              	.LASF13:
 3585 00ec 696E7433 		.ascii	"int32\000"
 3585      3200
 3586              	.LASF37:
 3587 00f2 43617053 		.ascii	"CapSense_CSD_CheckIsSensorActive\000"
 3587      656E7365 
 3587      5F435344 
 3587      5F436865 
 3587      636B4973 
 3588              	.LASF41:
 3589 0113 73746174 		.ascii	"state\000"
 3589      6500
 3590              	.LASF4:
 3591 0119 6C6F6E67 		.ascii	"long int\000"
 3591      20696E74 
 3591      00
 3592              	.LASF57:
 3593 0122 6E756D65 		.ascii	"numerator\000"
 3593      7261746F 
 3593      7200
 3594              	.LASF58:
 3595 012c 64656E6F 		.ascii	"denominator\000"
 3595      6D696E61 
 3595      746F7200 
 3596              	.LASF62:
 3597 0138 43617053 		.ascii	"CapSense_CSD_widgetNumber\000"
 3597      656E7365 
 3597      5F435344 
 3597      5F776964 
 3597      6765744E 
 3598              	.LASF9:
 3599 0152 75696E74 		.ascii	"uint8\000"
 3599      3800
 3600              	.LASF15:
 3601 0158 646F7562 		.ascii	"double\000"
 3601      6C6500
 3602              	.LASF11:
 3603 015f 75696E74 		.ascii	"uint32\000"
 3603      333200
 3604              	.LASF78:
 3605 0166 43617053 		.ascii	"CapSense_CSD_ScanEnabledWidgets\000"
 3605      656E7365 
 3605      5F435344 
 3605      5F536361 
 3605      6E456E61 
 3606              	.LASF35:
 3607 0186 68797374 		.ascii	"hysteresis\000"
 3607      65726573 
 3607      697300
 3608              	.LASF17:
 3609 0191 6C6F6E67 		.ascii	"long double\000"
 3609      20646F75 
ARM GAS  C:\Users\aryan\AppData\Local\Temp\ccEOeQjh.s 			page 90


 3609      626C6500 
 3610              	.LASF48:
 3611 019d 6D617869 		.ascii	"maximum\000"
 3611      6D756D00 
 3612              	.LASF19:
 3613 01a5 43617053 		.ascii	"CapSense_CSD_BaseInit\000"
 3613      656E7365 
 3613      5F435344 
 3613      5F426173 
 3613      65496E69 
 3614              	.LASF54:
 3615 01bb 706F734E 		.ascii	"posNext\000"
 3615      65787400 
 3616              	.LASF63:
 3617 01c3 43617053 		.ascii	"CapSense_CSD_sensorBaseline\000"
 3617      656E7365 
 3617      5F435344 
 3617      5F73656E 
 3617      736F7242 
 3618              	.LASF50:
 3619 01df 73746172 		.ascii	"startOfSlider\000"
 3619      744F6653 
 3619      6C696465 
 3619      7200
 3620              	.LASF49:
 3621 01ed 74656D70 		.ascii	"temp\000"
 3621      00
 3622              	.LASF71:
 3623 01f2 43617053 		.ascii	"CapSense_CSD_debounce\000"
 3623      656E7365 
 3623      5F435344 
 3623      5F646562 
 3623      6F756E63 
 3624              	.LASF8:
 3625 0208 756E7369 		.ascii	"unsigned int\000"
 3625      676E6564 
 3625      20696E74 
 3625      00
 3626              	.LASF56:
 3627 0215 706F7369 		.ascii	"position\000"
 3627      74696F6E 
 3627      00
 3628              	.LASF5:
 3629 021e 6C6F6E67 		.ascii	"long unsigned int\000"
 3629      20756E73 
 3629      69676E65 
 3629      6420696E 
 3629      7400
 3630              	.LASF65:
 3631 0230 43617053 		.ascii	"CapSense_CSD_sensorSignal\000"
 3631      656E7365 
 3631      5F435344 
 3631      5F73656E 
 3631      736F7253 
 3632              	.LASF55:
 3633 024a 43617053 		.ascii	"CapSense_CSD_centroid\000"
 3633      656E7365 
ARM GAS  C:\Users\aryan\AppData\Local\Temp\ccEOeQjh.s 			page 91


 3633      5F435344 
 3633      5F63656E 
 3633      74726F69 
 3634              	.LASF3:
 3635 0260 73686F72 		.ascii	"short unsigned int\000"
 3635      7420756E 
 3635      7369676E 
 3635      65642069 
 3635      6E7400
 3636              	.LASF21:
 3637 0273 73656E73 		.ascii	"sensor\000"
 3637      6F7200
 3638              	.LASF51:
 3639 027a 43617053 		.ascii	"CapSense_CSD_CalcCentroid\000"
 3639      656E7365 
 3639      5F435344 
 3639      5F43616C 
 3639      6343656E 
 3640              	.LASF27:
 3641 0294 63616C63 		.ascii	"calc\000"
 3641      00
 3642              	.LASF76:
 3643 0299 43617053 		.ascii	"CapSense_CSD_ScanSensor\000"
 3643      656E7365 
 3643      5F435344 
 3643      5F536361 
 3643      6E53656E 
 3644              	.LASF36:
 3645 02b1 6465626F 		.ascii	"debounce\000"
 3645      756E6365 
 3645      00
 3646              	.LASF18:
 3647 02ba 73697A65 		.ascii	"sizetype\000"
 3647      74797065 
 3647      00
 3648              	.LASF81:
 3649 02c3 453A5C45 		.ascii	"E:\\Embeded System Lab\\ENDSEM-PROJECT\\COMPLETE pr"
 3649      6D626564 
 3649      65642053 
 3649      79737465 
 3649      6D204C61 
 3650 02f3 6F6A6563 		.ascii	"oject\\Workspace-Final\\Design02.cydsn\000"
 3650      745C576F 
 3650      726B7370 
 3650      6163652D 
 3650      46696E61 
 3651              	.LASF24:
 3652 0318 43617053 		.ascii	"CapSense_CSD_InitializeEnabledBaselines\000"
 3652      656E7365 
 3652      5F435344 
 3652      5F496E69 
 3652      7469616C 
 3653              	.LASF73:
 3654 0340 43617053 		.ascii	"CapSense_CSD_rawDataIndex\000"
 3654      656E7365 
 3654      5F435344 
 3654      5F726177 
ARM GAS  C:\Users\aryan\AppData\Local\Temp\ccEOeQjh.s 			page 92


 3654      44617461 
 3655              	.LASF25:
 3656 035a 656E4D61 		.ascii	"enMask\000"
 3656      736B00
 3657              	.LASF61:
 3658 0361 43617053 		.ascii	"CapSense_CSD_sensorEnableMask\000"
 3658      656E7365 
 3658      5F435344 
 3658      5F73656E 
 3658      736F7245 
 3659              	.LASF45:
 3660 037f 43617053 		.ascii	"CapSense_CSD_FindMaximum\000"
 3660      656E7365 
 3660      5F435344 
 3660      5F46696E 
 3660      644D6178 
 3661              	.LASF14:
 3662 0398 666C6F61 		.ascii	"float\000"
 3662      7400
 3663              	.LASF67:
 3664 039e 43617053 		.ascii	"CapSense_CSD_lowBaselineResetCnt\000"
 3664      656E7365 
 3664      5F435344 
 3664      5F6C6F77 
 3664      42617365 
 3665              	.LASF22:
 3666 03bf 43617053 		.ascii	"CapSense_CSD_InitializeAllBaselines\000"
 3666      656E7365 
 3666      5F435344 
 3666      5F496E69 
 3666      7469616C 
 3667              	.LASF68:
 3668 03e3 43617053 		.ascii	"CapSense_CSD_fingerThreshold\000"
 3668      656E7365 
 3668      5F435344 
 3668      5F66696E 
 3668      67657254 
 3669              	.LASF1:
 3670 0400 756E7369 		.ascii	"unsigned char\000"
 3670      676E6564 
 3670      20636861 
 3670      7200
 3671              	.LASF30:
 3672 040e 6E6F6973 		.ascii	"noiseThreshold\000"
 3672      65546872 
 3672      6573686F 
 3672      6C6400
 3673              	.LASF2:
 3674 041d 73686F72 		.ascii	"short int\000"
 3674      7420696E 
 3674      7400
 3675              	.LASF23:
 3676 0427 77696467 		.ascii	"widget\000"
 3676      657400
 3677              	.LASF33:
 3678 042e 6F6E4D61 		.ascii	"onMask\000"
 3678      736B00
ARM GAS  C:\Users\aryan\AppData\Local\Temp\ccEOeQjh.s 			page 93


 3679              	.LASF79:
 3680 0435 474E5520 		.ascii	"GNU C11 5.4.1 20160609 (release) [ARM/embedded-5-br"
 3680      43313120 
 3680      352E342E 
 3680      31203230 
 3680      31363036 
 3681 0468 616E6368 		.ascii	"anch revision 237715] -mcpu=cortex-m3 -mthumb -g -O"
 3681      20726576 
 3681      6973696F 
 3681      6E203233 
 3681      37373135 
 3682 049b 67202D66 		.ascii	"g -ffunction-sections -ffat-lto-objects\000"
 3682      66756E63 
 3682      74696F6E 
 3682      2D736563 
 3682      74696F6E 
 3683              	.LASF77:
 3684 04c3 43617053 		.ascii	"CapSense_CSD_IsBusy\000"
 3684      656E7365 
 3684      5F435344 
 3684      5F497342 
 3684      75737900 
 3685              	.LASF60:
 3686 04d7 43617053 		.ascii	"CapSense_CSD_sensorRaw\000"
 3686      656E7365 
 3686      5F435344 
 3686      5F73656E 
 3686      736F7252 
 3687              	.LASF26:
 3688 04ee 43617053 		.ascii	"CapSense_CSD_UpdateSensorBaseline\000"
 3688      656E7365 
 3688      5F435344 
 3688      5F557064 
 3688      61746553 
 3689              	.LASF52:
 3690 0510 7265736F 		.ascii	"resolution\000"
 3690      6C757469 
 3690      6F6E00
 3691              	.LASF74:
 3692 051b 43617053 		.ascii	"CapSense_CSD_numberOfSensors\000"
 3692      656E7365 
 3692      5F435344 
 3692      5F6E756D 
 3692      6265724F 
 3693              	.LASF69:
 3694 0538 43617053 		.ascii	"CapSense_CSD_noiseThreshold\000"
 3694      656E7365 
 3694      5F435344 
 3694      5F6E6F69 
 3694      73655468 
 3695              	.LASF16:
 3696 0554 63686172 		.ascii	"char\000"
 3696      00
 3697              	.LASF43:
 3698 0559 43617053 		.ascii	"CapSense_CSD_EnableWidget\000"
 3698      656E7365 
 3698      5F435344 
ARM GAS  C:\Users\aryan\AppData\Local\Temp\ccEOeQjh.s 			page 94


 3698      5F456E61 
 3698      626C6557 
 3699              	.LASF31:
 3700 0573 43617053 		.ascii	"CapSense_CSD_UpdateEnabledBaselines\000"
 3700      656E7365 
 3700      5F435344 
 3700      5F557064 
 3700      61746545 
 3701              	.LASF46:
 3702 0597 6F666673 		.ascii	"offset\000"
 3702      657400
 3703              	.LASF75:
 3704 059e 43617053 		.ascii	"CapSense_CSD_centroidMult\000"
 3704      656E7365 
 3704      5F435344 
 3704      5F63656E 
 3704      74726F69 
 3705              	.LASF70:
 3706 05b8 43617053 		.ascii	"CapSense_CSD_hysteresis\000"
 3706      656E7365 
 3706      5F435344 
 3706      5F687973 
 3706      74657265 
 3707              	.LASF32:
 3708 05d0 6465626F 		.ascii	"debounceIndex\000"
 3708      756E6365 
 3708      496E6465 
 3708      7800
 3709              	.LASF42:
 3710 05de 43617053 		.ascii	"CapSense_CSD_CheckIsAnyWidgetActive\000"
 3710      656E7365 
 3710      5F435344 
 3710      5F436865 
 3710      636B4973 
 3711              	.LASF38:
 3712 0602 43617053 		.ascii	"CapSense_CSD_CheckIsWidgetActive\000"
 3712      656E7365 
 3712      5F435344 
 3712      5F436865 
 3712      636B4973 
 3713              	.LASF12:
 3714 0623 696E7431 		.ascii	"int16\000"
 3714      3600
 3715              	.LASF72:
 3716 0629 43617053 		.ascii	"CapSense_CSD_debounceCounter\000"
 3716      656E7365 
 3716      5F435344 
 3716      5F646562 
 3716      6F756E63 
 3717              	.LASF64:
 3718 0646 43617053 		.ascii	"CapSense_CSD_sensorBaselineLow\000"
 3718      656E7365 
 3718      5F435344 
 3718      5F73656E 
 3718      736F7242 
 3719              	.LASF28:
 3720 0665 74656D70 		.ascii	"tempRaw\000"
ARM GAS  C:\Users\aryan\AppData\Local\Temp\ccEOeQjh.s 			page 95


 3720      52617700 
 3721              	.LASF44:
 3722 066d 43617053 		.ascii	"CapSense_CSD_DisableWidget\000"
 3722      656E7365 
 3722      5F435344 
 3722      5F446973 
 3722      61626C65 
 3723              	.LASF66:
 3724 0688 43617053 		.ascii	"CapSense_CSD_sensorOnMask\000"
 3724      656E7365 
 3724      5F435344 
 3724      5F73656E 
 3724      736F724F 
 3725              		.ident	"GCC: (GNU Tools for ARM Embedded Processors) 5.4.1 20160609 (release) [ARM/embedded-5-bran
