ARM GAS  C:\Users\aryan\AppData\Local\Temp\ccAtf3yd.s 			page 1


   1              		.syntax unified
   2              		.cpu cortex-m3
   3              		.fpu softvfp
   4              		.eabi_attribute 20, 1
   5              		.eabi_attribute 21, 1
   6              		.eabi_attribute 23, 3
   7              		.eabi_attribute 24, 1
   8              		.eabi_attribute 25, 1
   9              		.eabi_attribute 26, 1
  10              		.eabi_attribute 30, 1
  11              		.eabi_attribute 34, 1
  12              		.eabi_attribute 18, 4
  13              		.thumb
  14              		.syntax unified
  15              		.file	"main.c"
  16              		.text
  17              	.Ltext0:
  18              		.cfi_sections	.debug_frame
  19              		.global	__aeabi_i2d
  20              		.global	__aeabi_ddiv
  21              		.global	__aeabi_dmul
  22              		.global	__aeabi_dadd
  23              		.global	__aeabi_d2uiz
  24              		.section	.text.GenerateSineWave,"ax",%progbits
  25              		.align	2
  26              		.global	GenerateSineWave
  27              		.thumb
  28              		.thumb_func
  29              		.type	GenerateSineWave, %function
  30              	GenerateSineWave:
  31              	.LFB66:
  32              		.file 1 "main.c"
   1:main.c        **** #include <project.h>
   2:main.c        **** #include <stdio.h>
   3:main.c        **** #include <math.h>
   4:main.c        **** 
   5:main.c        **** // Function prototypes
   6:main.c        **** void CapSense_DisplayState(void);
   7:main.c        **** void GenerateSineWave(void);
   8:main.c        **** void UpdateClockFrequency(void);
   9:main.c        **** void DisplayBar(uint8 length);
  10:main.c        **** 
  11:main.c        **** // Global variables for signal control
  12:main.c        **** int amplitude = 1000; // Initial peak-to-peak amplitude in millivolts
  13:main.c        **** int theoreticalAmplitude = 1000; // Tracks the unrestricted amplitude (can exceed max)
  14:main.c        **** uint8 waveData[64]; // Lookup table for sine wave samples
  15:main.c        **** uint16 frequency = 1000; 
  16:main.c        **** uint16 clockDivider = 24000/1000; 
  17:main.c        **** uint8 barLength = 5; // Initial bar length for LCD display
  18:main.c        **** 
  19:main.c        **** int main()
  20:main.c        **** {
  21:main.c        ****     /* Enable global interrupts */
  22:main.c        ****     CyGlobalIntEnable;
  23:main.c        **** 
  24:main.c        ****     /* Initialize CapSense module and LCD */
  25:main.c        ****     CapSense_CSD_Start();
ARM GAS  C:\Users\aryan\AppData\Local\Temp\ccAtf3yd.s 			page 2


  26:main.c        ****     CapSense_CSD_InitializeAllBaselines();
  27:main.c        ****     LCD_Start();
  28:main.c        ****     LCD_ClearDisplay();
  29:main.c        **** 
  30:main.c        ****     /* Generate initial sine wave and start DAC */
  31:main.c        ****     GenerateSineWave();
  32:main.c        ****     WaveDAC8_Wave1Setup(waveData, 64);
  33:main.c        ****     WaveDAC8_Start();
  34:main.c        **** 
  35:main.c        ****     /* Set clock divider and start clock */
  36:main.c        ****     Clock_1_SetDividerValue(clockDivider);
  37:main.c        ****     Clock_1_Start();
  38:main.c        **** 
  39:main.c        ****     while(1u)
  40:main.c        ****     {
  41:main.c        ****         /* Check if CapSense is done scanning */
  42:main.c        ****         if(0u == CapSense_CSD_IsBusy())
  43:main.c        ****         {
  44:main.c        ****             CapSense_CSD_UpdateEnabledBaselines();
  45:main.c        ****             CapSense_CSD_ScanEnabledWidgets();
  46:main.c        ****         }
  47:main.c        ****         /* Update display and signal based on user input */
  48:main.c        ****         CapSense_DisplayState();
  49:main.c        ****     }
  50:main.c        **** }
  51:main.c        **** 
  52:main.c        **** // Handle CapSense inputs and update outputs accordingly
  53:main.c        **** void CapSense_DisplayState(void)
  54:main.c        **** {
  55:main.c        ****     char displayBuffer[16];
  56:main.c        ****     uint8 amplitudeChanged = 0;
  57:main.c        ****     uint8 frequencyChanged = 0;
  58:main.c        **** 
  59:main.c        ****     /* BUTTON0 (LEFT): Decrease amplitude */
  60:main.c        ****     if (CapSense_CSD_CheckIsWidgetActive(CapSense_CSD_BUTTON0__BTN))
  61:main.c        ****     {
  62:main.c        ****         if (theoreticalAmplitude > 0) theoreticalAmplitude -= 200;
  63:main.c        ****         if (amplitude > 200) {
  64:main.c        ****             amplitude -= 200;
  65:main.c        ****             amplitudeChanged = 1;
  66:main.c        ****         }
  67:main.c        ****         LCD_ClearDisplay();
  68:main.c        ****         LCD_Position(0, 0);
  69:main.c        ****         LCD_PrintString("LEFT");
  70:main.c        ****         snprintf(displayBuffer, sizeof(displayBuffer), "Theo: %d mV", theoreticalAmplitude);
  71:main.c        ****         LCD_Position(1, 0);
  72:main.c        ****         LCD_PrintString(displayBuffer);
  73:main.c        ****         CyDelay(100); // Debounce delay
  74:main.c        ****     }
  75:main.c        **** 
  76:main.c        ****     /* BUTTON1 (RIGHT): Increase amplitude */
  77:main.c        ****     if (CapSense_CSD_CheckIsWidgetActive(CapSense_CSD_BUTTON1__BTN))
  78:main.c        ****     {
  79:main.c        ****         theoreticalAmplitude += 200;
  80:main.c        ****         if (amplitude < 1000) {
  81:main.c        ****             amplitude += 200;
  82:main.c        ****             amplitudeChanged = 1;
ARM GAS  C:\Users\aryan\AppData\Local\Temp\ccAtf3yd.s 			page 3


  83:main.c        ****         }
  84:main.c        ****         LCD_ClearDisplay();
  85:main.c        ****         LCD_Position(0, 0);
  86:main.c        ****         LCD_PrintString("RIGHT");
  87:main.c        ****         snprintf(displayBuffer, sizeof(displayBuffer), "Theo: %d mV", theoreticalAmplitude);
  88:main.c        ****         LCD_Position(1, 0);
  89:main.c        ****         LCD_PrintString(displayBuffer);
  90:main.c        ****         CyDelay(100); // Debounce delay
  91:main.c        ****     }
  92:main.c        **** 
  93:main.c        ****     /* Linear Slider: Adjust frequency and bar length */
  94:main.c        ****     uint16 curPos = CapSense_CSD_GetCentroidPos(CapSense_CSD_LINEARSLIDER0__LS);
  95:main.c        ****     if (curPos != 0xFFFFu) {
  96:main.c        ****         static uint16 prevPos = 0;
  97:main.c        ****         if (curPos > prevPos && frequency < 5000) {
  98:main.c        ****             frequency += 100;
  99:main.c        ****             frequencyChanged = 1;
 100:main.c        ****             if (barLength < 16) barLength++; // Increase bar length
 101:main.c        ****         } else if (curPos < prevPos && frequency > 100) {
 102:main.c        ****             frequency -= 100;
 103:main.c        ****             frequencyChanged = 1;
 104:main.c        ****             if (barLength > 1) barLength--; // Decrease bar length
 105:main.c        ****         }
 106:main.c        ****         prevPos = curPos;
 107:main.c        ****     }
 108:main.c        **** 
 109:main.c        ****     /* Update output frequency if needed */
 110:main.c        ****     if (frequencyChanged) {
 111:main.c        ****         UpdateClockFrequency();
 112:main.c        ****     }
 113:main.c        **** 
 114:main.c        ****     /* Regenerate sine wave if amplitude was changed */
 115:main.c        ****     if (amplitudeChanged) {
 116:main.c        ****         GenerateSineWave();
 117:main.c        ****     }
 118:main.c        **** }
 119:main.c        **** 
 120:main.c        **** /* Generate a sine wave based on the current amplitude */
 121:main.c        **** void GenerateSineWave(void)
 122:main.c        **** {
  33              		.loc 1 122 0
  34              		.cfi_startproc
  35              		@ args = 0, pretend = 0, frame = 0
  36              		@ frame_needed = 0, uses_anonymous_args = 0
  37 0000 D0B5     		push	{r4, r6, r7, lr}
  38              		.cfi_def_cfa_offset 16
  39              		.cfi_offset 4, -16
  40              		.cfi_offset 6, -12
  41              		.cfi_offset 7, -8
  42              		.cfi_offset 14, -4
  43              	.LVL0:
  44              	.LBB2:
 123:main.c        ****     for (uint8 i = 0; i < 64; i++)
  45              		.loc 1 123 0
  46 0002 0024     		movs	r4, #0
  47 0004 30E0     		b	.L2
  48              	.LVL1:
ARM GAS  C:\Users\aryan\AppData\Local\Temp\ccAtf3yd.s 			page 4


  49              	.L3:
 124:main.c        ****     {
 125:main.c        ****         waveData[i] = (uint8)(((amplitude / 1000.0) * 255 * (1 + sin((2 * M_PI * i) / 64))) / 2);
  50              		.loc 1 125 0 discriminator 3
  51 0006 204B     		ldr	r3, .L5+16
  52 0008 1868     		ldr	r0, [r3]
  53 000a FFF7FEFF 		bl	__aeabi_i2d
  54              	.LVL2:
  55 000e 0022     		movs	r2, #0
  56 0010 1E4B     		ldr	r3, .L5+20
  57 0012 FFF7FEFF 		bl	__aeabi_ddiv
  58              	.LVL3:
  59 0016 18A3     		adr	r3, .L5
  60 0018 D3E90023 		ldrd	r2, [r3]
  61 001c FFF7FEFF 		bl	__aeabi_dmul
  62              	.LVL4:
  63 0020 0646     		mov	r6, r0
  64 0022 0F46     		mov	r7, r1
  65 0024 2046     		mov	r0, r4
  66 0026 FFF7FEFF 		bl	__aeabi_i2d
  67              	.LVL5:
  68 002a 15A3     		adr	r3, .L5+8
  69 002c D3E90023 		ldrd	r2, [r3]
  70 0030 FFF7FEFF 		bl	__aeabi_dmul
  71              	.LVL6:
  72 0034 0022     		movs	r2, #0
  73 0036 164B     		ldr	r3, .L5+24
  74 0038 FFF7FEFF 		bl	__aeabi_dmul
  75              	.LVL7:
  76 003c FFF7FEFF 		bl	sin
  77              	.LVL8:
  78 0040 0022     		movs	r2, #0
  79 0042 144B     		ldr	r3, .L5+28
  80 0044 FFF7FEFF 		bl	__aeabi_dadd
  81              	.LVL9:
  82 0048 0246     		mov	r2, r0
  83 004a 0B46     		mov	r3, r1
  84 004c 3046     		mov	r0, r6
  85 004e 3946     		mov	r1, r7
  86 0050 FFF7FEFF 		bl	__aeabi_dmul
  87              	.LVL10:
  88 0054 0022     		movs	r2, #0
  89 0056 104B     		ldr	r3, .L5+32
  90 0058 FFF7FEFF 		bl	__aeabi_dmul
  91              	.LVL11:
  92 005c FFF7FEFF 		bl	__aeabi_d2uiz
  93              	.LVL12:
  94 0060 0E4B     		ldr	r3, .L5+36
  95 0062 1855     		strb	r0, [r3, r4]
 123:main.c        ****     for (uint8 i = 0; i < 64; i++)
  96              		.loc 1 123 0 discriminator 3
  97 0064 0134     		adds	r4, r4, #1
  98              	.LVL13:
  99 0066 E4B2     		uxtb	r4, r4
 100              	.LVL14:
 101              	.L2:
 123:main.c        ****     for (uint8 i = 0; i < 64; i++)
ARM GAS  C:\Users\aryan\AppData\Local\Temp\ccAtf3yd.s 			page 5


 102              		.loc 1 123 0 is_stmt 0 discriminator 1
 103 0068 3F2C     		cmp	r4, #63
 104 006a CCD9     		bls	.L3
 105              	.LBE2:
 126:main.c        ****     }
 127:main.c        ****     WaveDAC8_Wave1Setup(waveData, 64);
 106              		.loc 1 127 0 is_stmt 1
 107 006c 4021     		movs	r1, #64
 108 006e 0B48     		ldr	r0, .L5+36
 109 0070 FFF7FEFF 		bl	WaveDAC8_Wave1Setup
 110              	.LVL15:
 111 0074 D0BD     		pop	{r4, r6, r7, pc}
 112              	.LVL16:
 113              	.L6:
 114 0076 00BF     		.align	3
 115              	.L5:
 116 0078 00000000 		.word	0
 117 007c 00E06F40 		.word	1081073664
 118 0080 182D4454 		.word	1413754136
 119 0084 FB211940 		.word	1075388923
 120 0088 00000000 		.word	.LANCHOR0
 121 008c 00408F40 		.word	1083129856
 122 0090 0000903F 		.word	1066401792
 123 0094 0000F03F 		.word	1072693248
 124 0098 0000E03F 		.word	1071644672
 125 009c 00000000 		.word	waveData
 126              		.cfi_endproc
 127              	.LFE66:
 128              		.size	GenerateSineWave, .-GenerateSineWave
 129              		.section	.text.UpdateClockFrequency,"ax",%progbits
 130              		.align	2
 131              		.global	UpdateClockFrequency
 132              		.thumb
 133              		.thumb_func
 134              		.type	UpdateClockFrequency, %function
 135              	UpdateClockFrequency:
 136              	.LFB67:
 128:main.c        **** }
 129:main.c        **** 
 130:main.c        **** /* Update the clock frequency driving WaveDAC8 */
 131:main.c        **** void UpdateClockFrequency(void)
 132:main.c        **** {
 137              		.loc 1 132 0
 138              		.cfi_startproc
 139              		@ args = 0, pretend = 0, frame = 0
 140              		@ frame_needed = 0, uses_anonymous_args = 0
 141 0000 08B5     		push	{r3, lr}
 142              		.cfi_def_cfa_offset 8
 143              		.cfi_offset 3, -8
 144              		.cfi_offset 14, -4
 133:main.c        ****     clockDivider = 24000 / frequency; 
 145              		.loc 1 133 0
 146 0002 064A     		ldr	r2, .L9
 147 0004 9088     		ldrh	r0, [r2, #4]
 148 0006 45F6C053 		movw	r3, #24000
 149 000a 93FBF0F0 		sdiv	r0, r3, r0
 150 000e D080     		strh	r0, [r2, #6]	@ movhi
ARM GAS  C:\Users\aryan\AppData\Local\Temp\ccAtf3yd.s 			page 6


 134:main.c        ****     Clock_1_SetDividerValue(clockDivider);
 151              		.loc 1 134 0
 152 0010 0138     		subs	r0, r0, #1
 153 0012 0121     		movs	r1, #1
 154 0014 80B2     		uxth	r0, r0
 155 0016 FFF7FEFF 		bl	Clock_1_SetDividerRegister
 156              	.LVL17:
 157 001a 08BD     		pop	{r3, pc}
 158              	.L10:
 159              		.align	2
 160              	.L9:
 161 001c 00000000 		.word	.LANCHOR0
 162              		.cfi_endproc
 163              	.LFE67:
 164              		.size	UpdateClockFrequency, .-UpdateClockFrequency
 165              		.section	.text.CapSense_DisplayState,"ax",%progbits
 166              		.align	2
 167              		.global	CapSense_DisplayState
 168              		.thumb
 169              		.thumb_func
 170              		.type	CapSense_DisplayState, %function
 171              	CapSense_DisplayState:
 172              	.LFB65:
  54:main.c        ****     char displayBuffer[16];
 173              		.loc 1 54 0
 174              		.cfi_startproc
 175              		@ args = 0, pretend = 0, frame = 16
 176              		@ frame_needed = 0, uses_anonymous_args = 0
 177 0000 10B5     		push	{r4, lr}
 178              		.cfi_def_cfa_offset 8
 179              		.cfi_offset 4, -8
 180              		.cfi_offset 14, -4
 181 0002 84B0     		sub	sp, sp, #16
 182              		.cfi_def_cfa_offset 24
 183              	.LVL18:
  60:main.c        ****     {
 184              		.loc 1 60 0
 185 0004 0120     		movs	r0, #1
 186 0006 FFF7FEFF 		bl	CapSense_CSD_CheckIsWidgetActive
 187              	.LVL19:
 188 000a 60B3     		cbz	r0, .L22
  62:main.c        ****         if (amplitude > 200) {
 189              		.loc 1 62 0
 190 000c 4B4B     		ldr	r3, .L30
 191 000e 9B68     		ldr	r3, [r3, #8]
 192 0010 002B     		cmp	r3, #0
 193 0012 02DD     		ble	.L13
  62:main.c        ****         if (amplitude > 200) {
 194              		.loc 1 62 0 is_stmt 0 discriminator 1
 195 0014 C83B     		subs	r3, r3, #200
 196 0016 494A     		ldr	r2, .L30
 197 0018 9360     		str	r3, [r2, #8]
 198              	.L13:
  63:main.c        ****             amplitude -= 200;
 199              		.loc 1 63 0 is_stmt 1
 200 001a 484B     		ldr	r3, .L30
 201 001c 1B68     		ldr	r3, [r3]
ARM GAS  C:\Users\aryan\AppData\Local\Temp\ccAtf3yd.s 			page 7


 202 001e C82B     		cmp	r3, #200
 203 0020 04DD     		ble	.L23
  64:main.c        ****             amplitudeChanged = 1;
 204              		.loc 1 64 0
 205 0022 C83B     		subs	r3, r3, #200
 206 0024 454A     		ldr	r2, .L30
 207 0026 1360     		str	r3, [r2]
 208              	.LVL20:
  65:main.c        ****         }
 209              		.loc 1 65 0
 210 0028 0124     		movs	r4, #1
 211 002a 00E0     		b	.L14
 212              	.LVL21:
 213              	.L23:
  56:main.c        ****     uint8 frequencyChanged = 0;
 214              		.loc 1 56 0
 215 002c 0024     		movs	r4, #0
 216              	.LVL22:
 217              	.L14:
  67:main.c        ****         LCD_Position(0, 0);
 218              		.loc 1 67 0
 219 002e 0120     		movs	r0, #1
 220 0030 FFF7FEFF 		bl	LCD_WriteControl
 221              	.LVL23:
  68:main.c        ****         LCD_PrintString("LEFT");
 222              		.loc 1 68 0
 223 0034 0021     		movs	r1, #0
 224 0036 0846     		mov	r0, r1
 225 0038 FFF7FEFF 		bl	LCD_Position
 226              	.LVL24:
  69:main.c        ****         snprintf(displayBuffer, sizeof(displayBuffer), "Theo: %d mV", theoreticalAmplitude);
 227              		.loc 1 69 0
 228 003c 4048     		ldr	r0, .L30+4
 229 003e FFF7FEFF 		bl	LCD_PrintString
 230              	.LVL25:
  70:main.c        ****         LCD_Position(1, 0);
 231              		.loc 1 70 0
 232 0042 3E4B     		ldr	r3, .L30
 233 0044 9B68     		ldr	r3, [r3, #8]
 234 0046 3F4A     		ldr	r2, .L30+8
 235 0048 1021     		movs	r1, #16
 236 004a 6846     		mov	r0, sp
 237 004c FFF7FEFF 		bl	snprintf
 238              	.LVL26:
  71:main.c        ****         LCD_PrintString(displayBuffer);
 239              		.loc 1 71 0
 240 0050 0021     		movs	r1, #0
 241 0052 0120     		movs	r0, #1
 242 0054 FFF7FEFF 		bl	LCD_Position
 243              	.LVL27:
  72:main.c        ****         CyDelay(100); // Debounce delay
 244              		.loc 1 72 0
 245 0058 6846     		mov	r0, sp
 246 005a FFF7FEFF 		bl	LCD_PrintString
 247              	.LVL28:
  73:main.c        ****     }
 248              		.loc 1 73 0
ARM GAS  C:\Users\aryan\AppData\Local\Temp\ccAtf3yd.s 			page 8


 249 005e 6420     		movs	r0, #100
 250 0060 FFF7FEFF 		bl	CyDelay
 251              	.LVL29:
 252 0064 00E0     		b	.L12
 253              	.LVL30:
 254              	.L22:
  56:main.c        ****     uint8 frequencyChanged = 0;
 255              		.loc 1 56 0
 256 0066 0024     		movs	r4, #0
 257              	.LVL31:
 258              	.L12:
  77:main.c        ****     {
 259              		.loc 1 77 0
 260 0068 0220     		movs	r0, #2
 261 006a FFF7FEFF 		bl	CapSense_CSD_CheckIsWidgetActive
 262              	.LVL32:
 263 006e 30B3     		cbz	r0, .L15
  79:main.c        ****         if (amplitude < 1000) {
 264              		.loc 1 79 0
 265 0070 324B     		ldr	r3, .L30
 266 0072 9A68     		ldr	r2, [r3, #8]
 267 0074 C832     		adds	r2, r2, #200
 268 0076 9A60     		str	r2, [r3, #8]
  80:main.c        ****             amplitude += 200;
 269              		.loc 1 80 0
 270 0078 1B68     		ldr	r3, [r3]
 271 007a B3F57A7F 		cmp	r3, #1000
 272 007e 03DA     		bge	.L16
  81:main.c        ****             amplitudeChanged = 1;
 273              		.loc 1 81 0
 274 0080 C833     		adds	r3, r3, #200
 275 0082 2E4A     		ldr	r2, .L30
 276 0084 1360     		str	r3, [r2]
 277              	.LVL33:
  82:main.c        ****         }
 278              		.loc 1 82 0
 279 0086 0124     		movs	r4, #1
 280              	.LVL34:
 281              	.L16:
  84:main.c        ****         LCD_Position(0, 0);
 282              		.loc 1 84 0
 283 0088 0120     		movs	r0, #1
 284 008a FFF7FEFF 		bl	LCD_WriteControl
 285              	.LVL35:
  85:main.c        ****         LCD_PrintString("RIGHT");
 286              		.loc 1 85 0
 287 008e 0021     		movs	r1, #0
 288 0090 0846     		mov	r0, r1
 289 0092 FFF7FEFF 		bl	LCD_Position
 290              	.LVL36:
  86:main.c        ****         snprintf(displayBuffer, sizeof(displayBuffer), "Theo: %d mV", theoreticalAmplitude);
 291              		.loc 1 86 0
 292 0096 2C48     		ldr	r0, .L30+12
 293 0098 FFF7FEFF 		bl	LCD_PrintString
 294              	.LVL37:
  87:main.c        ****         LCD_Position(1, 0);
 295              		.loc 1 87 0
ARM GAS  C:\Users\aryan\AppData\Local\Temp\ccAtf3yd.s 			page 9


 296 009c 274B     		ldr	r3, .L30
 297 009e 9B68     		ldr	r3, [r3, #8]
 298 00a0 284A     		ldr	r2, .L30+8
 299 00a2 1021     		movs	r1, #16
 300 00a4 6846     		mov	r0, sp
 301 00a6 FFF7FEFF 		bl	snprintf
 302              	.LVL38:
  88:main.c        ****         LCD_PrintString(displayBuffer);
 303              		.loc 1 88 0
 304 00aa 0021     		movs	r1, #0
 305 00ac 0120     		movs	r0, #1
 306 00ae FFF7FEFF 		bl	LCD_Position
 307              	.LVL39:
  89:main.c        ****         CyDelay(100); // Debounce delay
 308              		.loc 1 89 0
 309 00b2 6846     		mov	r0, sp
 310 00b4 FFF7FEFF 		bl	LCD_PrintString
 311              	.LVL40:
  90:main.c        ****     }
 312              		.loc 1 90 0
 313 00b8 6420     		movs	r0, #100
 314 00ba FFF7FEFF 		bl	CyDelay
 315              	.LVL41:
 316              	.L15:
  94:main.c        ****     if (curPos != 0xFFFFu) {
 317              		.loc 1 94 0
 318 00be 0020     		movs	r0, #0
 319 00c0 FFF7FEFF 		bl	CapSense_CSD_GetCentroidPos
 320              	.LVL42:
  95:main.c        ****         static uint16 prevPos = 0;
 321              		.loc 1 95 0
 322 00c4 4FF6FF73 		movw	r3, #65535
 323 00c8 9842     		cmp	r0, r3
 324 00ca 2ED0     		beq	.L24
 325              	.LBB3:
  97:main.c        ****             frequency += 100;
 326              		.loc 1 97 0
 327 00cc 1F4B     		ldr	r3, .L30+16
 328 00ce 1B88     		ldrh	r3, [r3]
 329 00d0 9842     		cmp	r0, r3
 330 00d2 10D9     		bls	.L18
  97:main.c        ****             frequency += 100;
 331              		.loc 1 97 0 is_stmt 0 discriminator 1
 332 00d4 194A     		ldr	r2, .L30
 333 00d6 9288     		ldrh	r2, [r2, #4]
 334 00d8 41F28731 		movw	r1, #4999
 335 00dc 8A42     		cmp	r2, r1
 336 00de 0AD8     		bhi	.L18
  98:main.c        ****             frequencyChanged = 1;
 337              		.loc 1 98 0 is_stmt 1
 338 00e0 164B     		ldr	r3, .L30
 339 00e2 6432     		adds	r2, r2, #100
 340 00e4 9A80     		strh	r2, [r3, #4]	@ movhi
 341              	.LVL43:
 100:main.c        ****         } else if (curPos < prevPos && frequency > 100) {
 342              		.loc 1 100 0
 343 00e6 1B7B     		ldrb	r3, [r3, #12]	@ zero_extendqisi2
ARM GAS  C:\Users\aryan\AppData\Local\Temp\ccAtf3yd.s 			page 10


 344 00e8 0F2B     		cmp	r3, #15
 345 00ea 14D8     		bhi	.L25
 100:main.c        ****         } else if (curPos < prevPos && frequency > 100) {
 346              		.loc 1 100 0 is_stmt 0 discriminator 1
 347 00ec 0133     		adds	r3, r3, #1
 348 00ee 134A     		ldr	r2, .L30
 349 00f0 1373     		strb	r3, [r2, #12]
  99:main.c        ****             if (barLength < 16) barLength++; // Increase bar length
 350              		.loc 1 99 0 is_stmt 1 discriminator 1
 351 00f2 0123     		movs	r3, #1
 352 00f4 16E0     		b	.L19
 353              	.LVL44:
 354              	.L18:
 101:main.c        ****             frequency -= 100;
 355              		.loc 1 101 0
 356 00f6 9842     		cmp	r0, r3
 357 00f8 0FD2     		bcs	.L26
 101:main.c        ****             frequency -= 100;
 358              		.loc 1 101 0 is_stmt 0 discriminator 1
 359 00fa 104B     		ldr	r3, .L30
 360 00fc 9B88     		ldrh	r3, [r3, #4]
 361 00fe 642B     		cmp	r3, #100
 362 0100 0DD9     		bls	.L27
 102:main.c        ****             frequencyChanged = 1;
 363              		.loc 1 102 0 is_stmt 1
 364 0102 0E4A     		ldr	r2, .L30
 365 0104 643B     		subs	r3, r3, #100
 366 0106 9380     		strh	r3, [r2, #4]	@ movhi
 367              	.LVL45:
 104:main.c        ****         }
 368              		.loc 1 104 0
 369 0108 137B     		ldrb	r3, [r2, #12]	@ zero_extendqisi2
 370 010a 012B     		cmp	r3, #1
 371 010c 09D9     		bls	.L28
 104:main.c        ****         }
 372              		.loc 1 104 0 is_stmt 0 discriminator 1
 373 010e 013B     		subs	r3, r3, #1
 374 0110 1373     		strb	r3, [r2, #12]
 103:main.c        ****             if (barLength > 1) barLength--; // Decrease bar length
 375              		.loc 1 103 0 is_stmt 1 discriminator 1
 376 0112 0123     		movs	r3, #1
 377 0114 06E0     		b	.L19
 378              	.L25:
  99:main.c        ****             if (barLength < 16) barLength++; // Increase bar length
 379              		.loc 1 99 0
 380 0116 0123     		movs	r3, #1
 381 0118 04E0     		b	.L19
 382              	.LVL46:
 383              	.L26:
 384              	.LBE3:
  57:main.c        **** 
 385              		.loc 1 57 0
 386 011a 0023     		movs	r3, #0
 387 011c 02E0     		b	.L19
 388              	.L27:
 389 011e 0023     		movs	r3, #0
 390 0120 00E0     		b	.L19
ARM GAS  C:\Users\aryan\AppData\Local\Temp\ccAtf3yd.s 			page 11


 391              	.LVL47:
 392              	.L28:
 393              	.LBB4:
 103:main.c        ****             if (barLength > 1) barLength--; // Decrease bar length
 394              		.loc 1 103 0
 395 0122 0123     		movs	r3, #1
 396              	.LVL48:
 397              	.L19:
 106:main.c        ****     }
 398              		.loc 1 106 0
 399 0124 094A     		ldr	r2, .L30+16
 400 0126 1080     		strh	r0, [r2]	@ movhi
 401 0128 00E0     		b	.L17
 402              	.LVL49:
 403              	.L24:
 404              	.LBE4:
  57:main.c        **** 
 405              		.loc 1 57 0
 406 012a 0023     		movs	r3, #0
 407              	.LVL50:
 408              	.L17:
 110:main.c        ****         UpdateClockFrequency();
 409              		.loc 1 110 0
 410 012c 0BB1     		cbz	r3, .L20
 111:main.c        ****     }
 411              		.loc 1 111 0
 412 012e FFF7FEFF 		bl	UpdateClockFrequency
 413              	.LVL51:
 414              	.L20:
 115:main.c        ****         GenerateSineWave();
 415              		.loc 1 115 0
 416 0132 0CB1     		cbz	r4, .L11
 116:main.c        ****     }
 417              		.loc 1 116 0
 418 0134 FFF7FEFF 		bl	GenerateSineWave
 419              	.LVL52:
 420              	.L11:
 118:main.c        **** 
 421              		.loc 1 118 0
 422 0138 04B0     		add	sp, sp, #16
 423              		.cfi_def_cfa_offset 8
 424              		@ sp needed
 425 013a 10BD     		pop	{r4, pc}
 426              	.LVL53:
 427              	.L31:
 428              		.align	2
 429              	.L30:
 430 013c 00000000 		.word	.LANCHOR0
 431 0140 00000000 		.word	.LC0
 432 0144 08000000 		.word	.LC1
 433 0148 14000000 		.word	.LC2
 434 014c 00000000 		.word	.LANCHOR1
 435              		.cfi_endproc
 436              	.LFE65:
 437              		.size	CapSense_DisplayState, .-CapSense_DisplayState
 438              		.section	.text.main,"ax",%progbits
 439              		.align	2
ARM GAS  C:\Users\aryan\AppData\Local\Temp\ccAtf3yd.s 			page 12


 440              		.global	main
 441              		.thumb
 442              		.thumb_func
 443              		.type	main, %function
 444              	main:
 445              	.LFB64:
  20:main.c        ****     /* Enable global interrupts */
 446              		.loc 1 20 0
 447              		.cfi_startproc
 448              		@ Volatile: function does not return.
 449              		@ args = 0, pretend = 0, frame = 0
 450              		@ frame_needed = 0, uses_anonymous_args = 0
 451 0000 08B5     		push	{r3, lr}
 452              		.cfi_def_cfa_offset 8
 453              		.cfi_offset 3, -8
 454              		.cfi_offset 14, -4
  22:main.c        **** 
 455              		.loc 1 22 0
 456              		.syntax unified
 457              	@ 22 "main.c" 1
 458 0002 62B6     		CPSIE   i
 459              	@ 0 "" 2
  25:main.c        ****     CapSense_CSD_InitializeAllBaselines();
 460              		.loc 1 25 0
 461              		.thumb
 462              		.syntax unified
 463 0004 FFF7FEFF 		bl	CapSense_CSD_Start
 464              	.LVL54:
  26:main.c        ****     LCD_Start();
 465              		.loc 1 26 0
 466 0008 FFF7FEFF 		bl	CapSense_CSD_InitializeAllBaselines
 467              	.LVL55:
  27:main.c        ****     LCD_ClearDisplay();
 468              		.loc 1 27 0
 469 000c FFF7FEFF 		bl	LCD_Start
 470              	.LVL56:
  28:main.c        **** 
 471              		.loc 1 28 0
 472 0010 0120     		movs	r0, #1
 473 0012 FFF7FEFF 		bl	LCD_WriteControl
 474              	.LVL57:
  31:main.c        ****     WaveDAC8_Wave1Setup(waveData, 64);
 475              		.loc 1 31 0
 476 0016 FFF7FEFF 		bl	GenerateSineWave
 477              	.LVL58:
  32:main.c        ****     WaveDAC8_Start();
 478              		.loc 1 32 0
 479 001a 4021     		movs	r1, #64
 480 001c 0B48     		ldr	r0, .L36
 481 001e FFF7FEFF 		bl	WaveDAC8_Wave1Setup
 482              	.LVL59:
  33:main.c        **** 
 483              		.loc 1 33 0
 484 0022 FFF7FEFF 		bl	WaveDAC8_Start
 485              	.LVL60:
  36:main.c        ****     Clock_1_Start();
 486              		.loc 1 36 0
ARM GAS  C:\Users\aryan\AppData\Local\Temp\ccAtf3yd.s 			page 13


 487 0026 0A4B     		ldr	r3, .L36+4
 488 0028 D888     		ldrh	r0, [r3, #6]
 489 002a 0138     		subs	r0, r0, #1
 490 002c 0121     		movs	r1, #1
 491 002e 80B2     		uxth	r0, r0
 492 0030 FFF7FEFF 		bl	Clock_1_SetDividerRegister
 493              	.LVL61:
  37:main.c        **** 
 494              		.loc 1 37 0
 495 0034 FFF7FEFF 		bl	Clock_1_Start
 496              	.LVL62:
 497              	.L34:
  42:main.c        ****         {
 498              		.loc 1 42 0
 499 0038 FFF7FEFF 		bl	CapSense_CSD_IsBusy
 500              	.LVL63:
 501 003c 18B9     		cbnz	r0, .L33
  44:main.c        ****             CapSense_CSD_ScanEnabledWidgets();
 502              		.loc 1 44 0
 503 003e FFF7FEFF 		bl	CapSense_CSD_UpdateEnabledBaselines
 504              	.LVL64:
  45:main.c        ****         }
 505              		.loc 1 45 0
 506 0042 FFF7FEFF 		bl	CapSense_CSD_ScanEnabledWidgets
 507              	.LVL65:
 508              	.L33:
  48:main.c        ****     }
 509              		.loc 1 48 0
 510 0046 FFF7FEFF 		bl	CapSense_DisplayState
 511              	.LVL66:
  49:main.c        **** }
 512              		.loc 1 49 0
 513 004a F5E7     		b	.L34
 514              	.L37:
 515              		.align	2
 516              	.L36:
 517 004c 00000000 		.word	waveData
 518 0050 00000000 		.word	.LANCHOR0
 519              		.cfi_endproc
 520              	.LFE64:
 521              		.size	main, .-main
 522              		.section	.text.DisplayBar,"ax",%progbits
 523              		.align	2
 524              		.global	DisplayBar
 525              		.thumb
 526              		.thumb_func
 527              		.type	DisplayBar, %function
 528              	DisplayBar:
 529              	.LFB68:
 135:main.c        **** }
 136:main.c        **** 
 137:main.c        **** /* Draw a horizontal bar with the given length on line 4 */
 138:main.c        **** void DisplayBar(uint8 length)
 139:main.c        **** {
 530              		.loc 1 139 0
 531              		.cfi_startproc
 532              		@ args = 0, pretend = 0, frame = 0
ARM GAS  C:\Users\aryan\AppData\Local\Temp\ccAtf3yd.s 			page 14


 533              		@ frame_needed = 0, uses_anonymous_args = 0
 534              		@ link register save eliminated.
 535              	.LVL67:
 536 0000 7047     		bx	lr
 537              		.cfi_endproc
 538              	.LFE68:
 539              		.size	DisplayBar, .-DisplayBar
 540              		.global	barLength
 541              		.global	clockDivider
 542              		.global	frequency
 543              		.comm	waveData,64,4
 544              		.global	theoreticalAmplitude
 545              		.global	amplitude
 546 0002 00BF     		.data
 547              		.align	2
 548              		.set	.LANCHOR0,. + 0
 549              		.type	amplitude, %object
 550              		.size	amplitude, 4
 551              	amplitude:
 552 0000 E8030000 		.word	1000
 553              		.type	frequency, %object
 554              		.size	frequency, 2
 555              	frequency:
 556 0004 E803     		.short	1000
 557              		.type	clockDivider, %object
 558              		.size	clockDivider, 2
 559              	clockDivider:
 560 0006 1800     		.short	24
 561              		.type	theoreticalAmplitude, %object
 562              		.size	theoreticalAmplitude, 4
 563              	theoreticalAmplitude:
 564 0008 E8030000 		.word	1000
 565              		.type	barLength, %object
 566              		.size	barLength, 1
 567              	barLength:
 568 000c 05       		.byte	5
 569              		.section	.rodata.str1.4,"aMS",%progbits,1
 570              		.align	2
 571              	.LC0:
 572 0000 4C454654 		.ascii	"LEFT\000"
 572      00
 573 0005 000000   		.space	3
 574              	.LC1:
 575 0008 5468656F 		.ascii	"Theo: %d mV\000"
 575      3A202564 
 575      206D5600 
 576              	.LC2:
 577 0014 52494748 		.ascii	"RIGHT\000"
 577      5400
 578              		.bss
 579              		.align	1
 580              		.set	.LANCHOR1,. + 0
 581              		.type	prevPos.7234, %object
 582              		.size	prevPos.7234, 2
 583              	prevPos.7234:
 584 0000 0000     		.space	2
 585              		.text
ARM GAS  C:\Users\aryan\AppData\Local\Temp\ccAtf3yd.s 			page 15


 586              	.Letext0:
 587              		.file 2 "c:\\program files (x86)\\cypress\\psoc creator\\4.4\\psoc creator\\import\\gnu\\arm\\5.4.
 588              		.file 3 "c:\\program files (x86)\\cypress\\psoc creator\\4.4\\psoc creator\\import\\gnu\\arm\\5.4.
 589              		.file 4 "Generated_Source\\PSoC5/cytypes.h"
 590              		.file 5 "Generated_Source\\PSoC5/core_cm3.h"
 591              		.file 6 "Generated_Source\\PSoC5/WaveDAC8.h"
 592              		.file 7 "Generated_Source\\PSoC5/Clock_1.h"
 593              		.file 8 "Generated_Source\\PSoC5/CapSense_CSD_CSHL.h"
 594              		.file 9 "Generated_Source\\PSoC5/LCD.h"
 595              		.file 10 "c:\\program files (x86)\\cypress\\psoc creator\\4.4\\psoc creator\\import\\gnu\\arm\\5.4
 596              		.file 11 "Generated_Source\\PSoC5/CyLib.h"
 597              		.file 12 "Generated_Source\\PSoC5/CapSense_CSD.h"
 598              		.file 13 "c:\\program files (x86)\\cypress\\psoc creator\\4.4\\psoc creator\\import\\gnu\\arm\\5.4